
 Start         Length     Name                   Class
 0001:00401000 0000628ECH _TEXT                  CODE
 0002:00464000 00001A1B4H _DATA                  DATA
 0003:0047E1B4 00000D00CH _BSS                   BSS
 0004:00000000 00000009CH _TLS                   TLS


Detailed map of segments
 0001:00000000 0000014F C=CODE    S=_TEXT    G=(none)   M=C:\BORLAND\BCC55\LIB\C0X32.OBJ ACBP=A9
 0001:00000150 0000007F C=CODE    S=_TEXT    G=(none)   M=D:\DEV\SOURCE\PDV3\OBJ\GRAVADOR.OBJ ACBP=A9
 0001:000001D0 000001F9 C=CODE    S=_TEXT    G=(none)   M=D:\DEV\SOURCE\PDV3\OBJ\SWGRAVA.OBJ ACBP=A9
 0001:000003CC 00008BD5 C=CODE    S=_TEXT    G=(none)   M=C:\XHARBOUR\LIB\OPTCON.LIB|hvm ACBP=A9
 0001:00008FA4 00003F9E C=CODE    S=_TEXT    G=(none)   M=C:\XHARBOUR\LIB\OPTCON.LIB|classes ACBP=A9
 0001:0000CF44 00000385 C=CODE    S=_TEXT    G=(none)   M=C:\XHARBOUR\LIB\OPTCON.LIB|fm ACBP=A9
 0001:0000D2CC 000002D9 C=CODE    S=_TEXT    G=(none)   M=C:\BORLAND\BCC55\LIB\BCC640.LIB|handles ACBP=A9
 0001:0000D5A8 00000010 C=CODE    S=_TEXT    G=(none)   M=C:\XHARBOUR\LIB\LANG.LIB|msgen ACBP=A9
 0001:0000D5B8 00001C78 C=CODE    S=_TEXT    G=(none)   M=C:\XHARBOUR\LIB\VM.LIB|arrays ACBP=A9
 0001:0000F230 00002DD0 C=CODE    S=_TEXT    G=(none)   M=C:\XHARBOUR\LIB\VM.LIB|arrayshb ACBP=A9
 0001:00012000 000007B4 C=CODE    S=_TEXT    G=(none)   M=C:\XHARBOUR\LIB\VM.LIB|asort ACBP=A9
 0001:000127B4 00000017 C=CODE    S=_TEXT    G=(none)   M=C:\XHARBOUR\LIB\VM.LIB|break ACBP=A9
 0001:000127CC 0000047A C=CODE    S=_TEXT    G=(none)   M=C:\XHARBOUR\LIB\VM.LIB|cmdarg ACBP=A9
 0001:00012C48 00000461 C=CODE    S=_TEXT    G=(none)   M=C:\XHARBOUR\LIB\VM.LIB|codebloc ACBP=A9
 0001:000130AC 00000697 C=CODE    S=_TEXT    G=(none)   M=C:\XHARBOUR\LIB\VM.LIB|dynsym ACBP=A9
 0001:00013744 00001415 C=CODE    S=_TEXT    G=(none)   M=C:\XHARBOUR\LIB\VM.LIB|errorapi ACBP=A9
 0001:00014B5C 000006DA C=CODE    S=_TEXT    G=(none)   M=C:\XHARBOUR\LIB\VM.LIB|estack ACBP=A9
 0001:00015238 00000B3B C=CODE    S=_TEXT    G=(none)   M=C:\XHARBOUR\LIB\VM.LIB|eval ACBP=A9
 0001:00015D74 0000166C C=CODE    S=_TEXT    G=(none)   M=C:\XHARBOUR\LIB\VM.LIB|extend ACBP=A9
 0001:000173E0 00000638 C=CODE    S=_TEXT    G=(none)   M=C:\XHARBOUR\LIB\VM.LIB|garbage ACBP=A9
 0001:00017A18 00000FF1 C=CODE    S=_TEXT    G=(none)   M=C:\XHARBOUR\LIB\VM.LIB|hbi18n ACBP=A9
 0001:00018A0C 00000006 C=CODE    S=_TEXT    G=(none)   M=C:\XHARBOUR\LIB\VM.LIB|initexit ACBP=A9
 0001:00018A14 000016E8 C=CODE    S=_TEXT    G=(none)   M=C:\XHARBOUR\LIB\VM.LIB|itemapi ACBP=A9
 0001:0001A0FC 00000C8B C=CODE    S=_TEXT    G=(none)   M=C:\XHARBOUR\LIB\VM.LIB|fastitem ACBP=A9
 0001:0001AD88 000016F7 C=CODE    S=_TEXT    G=(none)   M=C:\XHARBOUR\LIB\VM.LIB|macro ACBP=A9
 0001:0001C480 00000024 C=CODE    S=_TEXT    G=(none)   M=C:\XHARBOUR\LIB\VM.LIB|mainstd ACBP=A9
 0001:0001C4A4 00001E29 C=CODE    S=_TEXT    G=(none)   M=C:\XHARBOUR\LIB\VM.LIB|memvars ACBP=A9
 0001:0001E2D0 00000039 C=CODE    S=_TEXT    G=(none)   M=C:\XHARBOUR\LIB\VM.LIB|pcount ACBP=A9
 0001:0001E30C 000004B1 C=CODE    S=_TEXT    G=(none)   M=C:\XHARBOUR\LIB\VM.LIB|proc ACBP=A9
 0001:0001E7C0 0000008D C=CODE    S=_TEXT    G=(none)   M=C:\XHARBOUR\LIB\VM.LIB|harbinit ACBP=A9
 0001:0001E850 000000FA C=CODE    S=_TEXT    G=(none)   M=C:\XHARBOUR\LIB\RTL.LIB|at ACBP=A9
 0001:0001E94C 0000016A C=CODE    S=_TEXT    G=(none)   M=C:\XHARBOUR\LIB\RTL.LIB|box ACBP=A9
 0001:0001EAB8 000009E4 C=CODE    S=_TEXT    G=(none)   M=C:\XHARBOUR\LIB\RTL.LIB|cdpapi ACBP=A9
 0001:0001F49C 000000C7 C=CODE    S=_TEXT    G=(none)   M=C:\XHARBOUR\LIB\RTL.LIB|chrasc ACBP=A9
 0001:0001F564 00000A2D C=CODE    S=_TEXT    G=(none)   M=C:\XHARBOUR\LIB\RTL.LIB|console ACBP=A9
 0001:0001FF94 000007CB C=CODE    S=_TEXT    G=(none)   M=C:\XHARBOUR\LIB\RTL.LIB|dates ACBP=A9
 0001:00020760 00000627 C=CODE    S=_TEXT    G=(none)   M=C:\XHARBOUR\LIB\RTL.LIB|dateshb ACBP=A9
 0001:00020D88 0000003E C=CODE    S=_TEXT    G=(none)   M=C:\XHARBOUR\LIB\RTL.LIB|datesx ACBP=A9
 0001:00020DC8 00000220 C=CODE    S=_TEXT    G=(none)   M=C:\XHARBOUR\LIB\RTL.LIB|empty ACBP=A9
 0001:00020FE8 0000005B C=CODE    S=_TEXT    G=(none)   M=C:\XHARBOUR\LIB\RTL.LIB|file ACBP=A9
 0001:00021044 0000004E C=CODE    S=_TEXT    G=(none)   M=C:\XHARBOUR\LIB\RTL.LIB|filehb ACBP=A9
 0001:00021094 00000EC8 C=CODE    S=_TEXT    G=(none)   M=C:\XHARBOUR\LIB\RTL.LIB|filesys ACBP=A9
 0001:00021F5C 000000DE C=CODE    S=_TEXT    G=(none)   M=C:\XHARBOUR\LIB\RTL.LIB|fstemp ACBP=A9
 0001:0002203C 0000003C C=CODE    S=_TEXT    G=(none)   M=C:\XHARBOUR\LIB\RTL.LIB|gt ACBP=A9
 0001:00022078 000012A9 C=CODE    S=_TEXT    G=(none)   M=C:\XHARBOUR\LIB\RTL.LIB|gtapi ACBP=A9
 0001:00023324 00000824 C=CODE    S=_TEXT    G=(none)   M=C:\XHARBOUR\LIB\RTL.LIB|hbffind ACBP=A9
 0001:00023B48 000002E4 C=CODE    S=_TEXT    G=(none)   M=C:\XHARBOUR\LIB\RTL.LIB|idle ACBP=A9
 0001:00023E2C 00001CFF C=CODE    S=_TEXT    G=(none)   M=C:\XHARBOUR\LIB\RTL.LIB|inkey ACBP=A9
 0001:00025B2C 00000286 C=CODE    S=_TEXT    G=(none)   M=C:\XHARBOUR\LIB\RTL.LIB|langapi ACBP=A9
 0001:00025DB4 000000BD C=CODE    S=_TEXT    G=(none)   M=C:\XHARBOUR\LIB\RTL.LIB|left ACBP=A9
 0001:00025E74 0000007E C=CODE    S=_TEXT    G=(none)   M=C:\XHARBOUR\LIB\RTL.LIB|len ACBP=A9
 0001:00025EF4 000009D8 C=CODE    S=_TEXT    G=(none)   M=C:\XHARBOUR\LIB\RTL.LIB|math ACBP=A9
 0001:000268CC 0000002F C=CODE    S=_TEXT    G=(none)   M=C:\XHARBOUR\LIB\RTL.LIB|maxrow ACBP=A9
 0001:000268FC 0000019D C=CODE    S=_TEXT    G=(none)   M=C:\XHARBOUR\LIB\RTL.LIB|memofile ACBP=A9
 0001:00026A9C 00000526 C=CODE    S=_TEXT    G=(none)   M=C:\XHARBOUR\LIB\RTL.LIB|minmax ACBP=A9
 0001:00026FC4 000003F5 C=CODE    S=_TEXT    G=(none)   M=C:\XHARBOUR\LIB\RTL.LIB|mouseapi ACBP=A9
 0001:000273BC 00000120 C=CODE    S=_TEXT    G=(none)   M=C:\XHARBOUR\LIB\RTL.LIB|padc ACBP=A9
 0001:000274DC 000000E5 C=CODE    S=_TEXT    G=(none)   M=C:\XHARBOUR\LIB\RTL.LIB|padr ACBP=A9
 0001:000275C4 00000AB4 C=CODE    S=_TEXT    G=(none)   M=C:\XHARBOUR\LIB\RTL.LIB|philes ACBP=A9
 0001:00028078 00005A5E C=CODE    S=_TEXT    G=(none)   M=C:\XHARBOUR\LIB\RTL.LIB|regex ACBP=A9
 0001:0002DAD8 00000140 C=CODE    S=_TEXT    G=(none)   M=C:\XHARBOUR\LIB\RTL.LIB|replic ACBP=A9
 0001:0002DC18 0000029C C=CODE    S=_TEXT    G=(none)   M=C:\XHARBOUR\LIB\RTL.LIB|round ACBP=A9
 0001:0002DEB4 00000123 C=CODE    S=_TEXT    G=(none)   M=C:\XHARBOUR\LIB\RTL.LIB|saverest ACBP=A9
 0001:0002DFD8 0000012C C=CODE    S=_TEXT    G=(none)   M=C:\XHARBOUR\LIB\RTL.LIB|seconds ACBP=A9
 0001:0002E104 0000281A C=CODE    S=_TEXT    G=(none)   M=C:\XHARBOUR\LIB\RTL.LIB|set ACBP=A9
 0001:00030920 00000110 C=CODE    S=_TEXT    G=(none)   M=C:\XHARBOUR\LIB\RTL.LIB|setcolor ACBP=A9
 0001:00030A30 00000063 C=CODE    S=_TEXT    G=(none)   M=C:\XHARBOUR\LIB\RTL.LIB|setcurs ACBP=A9
 0001:00030A94 0000060A C=CODE    S=_TEXT    G=(none)   M=C:\XHARBOUR\LIB\RTL.LIB|setkey ACBP=A9
 0001:000310A0 0000008C C=CODE    S=_TEXT    G=(none)   M=C:\XHARBOUR\LIB\RTL.LIB|setpos ACBP=A9
 0001:0003112C 00000085 C=CODE    S=_TEXT    G=(none)   M=C:\XHARBOUR\LIB\RTL.LIB|space ACBP=A9
 0001:000311B4 000001F8 C=CODE    S=_TEXT    G=(none)   M=C:\XHARBOUR\LIB\RTL.LIB|spfiles ACBP=A9
 0001:000313AC 00000203 C=CODE    S=_TEXT    G=(none)   M=C:\XHARBOUR\LIB\RTL.LIB|str ACBP=A9
 0001:000315B0 0000036F C=CODE    S=_TEXT    G=(none)   M=C:\XHARBOUR\LIB\RTL.LIB|strcase ACBP=A9
 0001:00031920 000000E4 C=CODE    S=_TEXT    G=(none)   M=C:\XHARBOUR\LIB\RTL.LIB|strings ACBP=A9
 0001:00031A04 0000010D C=CODE    S=_TEXT    G=(none)   M=C:\XHARBOUR\LIB\RTL.LIB|strmatch ACBP=A9
 0001:00031B14 00000327 C=CODE    S=_TEXT    G=(none)   M=C:\XHARBOUR\LIB\RTL.LIB|strtran ACBP=A9
 0001:00031E3C 000001D8 C=CODE    S=_TEXT    G=(none)   M=C:\XHARBOUR\LIB\RTL.LIB|strzero ACBP=A9
 0001:00032014 0000018B C=CODE    S=_TEXT    G=(none)   M=C:\XHARBOUR\LIB\RTL.LIB|substr ACBP=A9
 0001:000321A0 000009CF C=CODE    S=_TEXT    G=(none)   M=C:\XHARBOUR\LIB\RTL.LIB|tprinter ACBP=A9
 0001:00032B70 00000140 C=CODE    S=_TEXT    G=(none)   M=C:\XHARBOUR\LIB\RTL.LIB|trace ACBP=A9
 0001:00032CB0 00001304 C=CODE    S=_TEXT    G=(none)   M=C:\XHARBOUR\LIB\RTL.LIB|transfrm ACBP=A9
 0001:00033FB4 00000206 C=CODE    S=_TEXT    G=(none)   M=C:\XHARBOUR\LIB\RTL.LIB|trim ACBP=A9
 0001:000341BC 0000006D C=CODE    S=_TEXT    G=(none)   M=C:\XHARBOUR\LIB\RTL.LIB|type ACBP=A9
 0001:0003422C 0000019C C=CODE    S=_TEXT    G=(none)   M=C:\XHARBOUR\LIB\RTL.LIB|val ACBP=A9
 0001:000343C8 000002B4 C=CODE    S=_TEXT    G=(none)   M=C:\XHARBOUR\LIB\RTL.LIB|valtype ACBP=A9
 0001:0003467C 00000080 C=CODE    S=_TEXT    G=(none)   M=C:\XHARBOUR\LIB\RTL.LIB|xhelp ACBP=A9
 0001:000346FC 000000DE C=CODE    S=_TEXT    G=(none)   M=C:\XHARBOUR\LIB\RTL.LIB|xsavescr ACBP=A9
 0001:000347DC 0000005D C=CODE    S=_TEXT    G=(none)   M=C:\XHARBOUR\LIB\RTL.LIB|alert ACBP=A9
 0001:0003483C 00000075 C=CODE    S=_TEXT    G=(none)   M=C:\XHARBOUR\LIB\RTL.LIB|cstr ACBP=A9
 0001:000348B4 000000BD C=CODE    S=_TEXT    G=(none)   M=C:\XHARBOUR\LIB\RTL.LIB|errorsys ACBP=A9
 0001:00034974 000001DD C=CODE    S=_TEXT    G=(none)   M=C:\XHARBOUR\LIB\RTL.LIB|objfunc ACBP=A9
 0001:00034B54 000001DD C=CODE    S=_TEXT    G=(none)   M=C:\XHARBOUR\LIB\RTL.LIB|tclass ACBP=A9
 0001:00034D34 00000075 C=CODE    S=_TEXT    G=(none)   M=C:\XHARBOUR\LIB\RTL.LIB|terror ACBP=A9
 0001:00034DAC 000000D5 C=CODE    S=_TEXT    G=(none)   M=C:\XHARBOUR\LIB\RTL.LIB|tobject ACBP=A9
 0001:00034E84 0000002D C=CODE    S=_TEXT    G=(none)   M=C:\XHARBOUR\LIB\RTL.LIB|traceprg ACBP=A9
 0001:00034EB4 0000654C C=CODE    S=_TEXT    G=(none)   M=C:\XHARBOUR\LIB\RDD.LIB|dbcmd ACBP=A9
 0001:0003B400 00000EF0 C=CODE    S=_TEXT    G=(none)   M=C:\XHARBOUR\LIB\RDD.LIB|workarea ACBP=A9
 0001:0003C2F0 000033AB C=CODE    S=_TEXT    G=(none)   M=C:\XHARBOUR\LIB\RDD.LIB|dbf1 ACBP=A9
 0001:0003F69C 00000087 C=CODE    S=_TEXT    G=(none)   M=C:\XHARBOUR\LIB\RDD.LIB|delim1 ACBP=A9
 0001:0003F724 00000087 C=CODE    S=_TEXT    G=(none)   M=C:\XHARBOUR\LIB\RDD.LIB|sdf1 ACBP=A9
 0001:0003F7AC 00000045 C=CODE    S=_TEXT    G=(none)   M=C:\XHARBOUR\LIB\RDD.LIB|dbf0 ACBP=A9
 0001:0003F7F4 0000014D C=CODE    S=_TEXT    G=(none)   M=C:\XHARBOUR\LIB\RDD.LIB|dbfuncs ACBP=A9
 0001:0003F944 00000671 C=CODE    S=_TEXT    G=(none)   M=C:\XHARBOUR\LIB\RDD.LIB|hbdbsort ACBP=A9
 0001:0003FFB8 00000045 C=CODE    S=_TEXT    G=(none)   M=C:\XHARBOUR\LIB\RDD.LIB|delim0 ACBP=A9
 0001:00040000 00000105 C=CODE    S=_TEXT    G=(none)   M=C:\XHARBOUR\LIB\RDD.LIB|rddord ACBP=A9
 0001:00040108 00000045 C=CODE    S=_TEXT    G=(none)   M=C:\XHARBOUR\LIB\RDD.LIB|rddsys ACBP=A9
 0001:00040150 00000045 C=CODE    S=_TEXT    G=(none)   M=C:\XHARBOUR\LIB\RDD.LIB|sdf0 ACBP=A9
 0001:00040198 000036A9 C=CODE    S=_TEXT    G=(none)   M=C:\XHARBOUR\LIB\MACRO.LIB|macroy ACBP=A9
 0001:00043844 0000030D C=CODE    S=_TEXT    G=(none)   M=C:\XHARBOUR\LIB\MACRO.LIB|macroa ACBP=A9
 0001:00043B54 00004F51 C=CODE    S=_TEXT    G=(none)   M=C:\XHARBOUR\LIB\MACRO.LIB|macrob ACBP=A9
 0001:00048AA8 0000073C C=CODE    S=_TEXT    G=(none)   M=C:\XHARBOUR\LIB\MACRO.LIB|macroc ACBP=A9
 0001:000491E4 00001815 C=CODE    S=_TEXT    G=(none)   M=C:\XHARBOUR\LIB\MACRO.LIB|macroslx ACBP=A9
 0001:0004A9FC 0000719B C=CODE    S=_TEXT    G=(none)   M=C:\XHARBOUR\LIB\DBFNTX.LIB|dbfntx1 ACBP=A9
 0001:00051B98 00000045 C=CODE    S=_TEXT    G=(none)   M=C:\XHARBOUR\LIB\DBFNTX.LIB|dbfntx0 ACBP=A9
 0001:00051BE0 00000A28 C=CODE    S=_TEXT    G=(none)   M=C:\XHARBOUR\LIB\DBFDBT.LIB|dbfdbt1 ACBP=A9
 0001:00052608 00000045 C=CODE    S=_TEXT    G=(none)   M=C:\XHARBOUR\LIB\DBFDBT.LIB|dbfdbt0 ACBP=A9
 0001:00052650 00000331 C=CODE    S=_TEXT    G=(none)   M=C:\XHARBOUR\LIB\COMMON.LIB|hbfsapi ACBP=A9
 0001:00052984 00000033 C=CODE    S=_TEXT    G=(none)   M=C:\XHARBOUR\LIB\COMMON.LIB|hbgete ACBP=A9
 0001:000529B8 00000153 C=CODE    S=_TEXT    G=(none)   M=C:\XHARBOUR\LIB\COMMON.LIB|hbstr ACBP=A9
 0001:00052B0C 00000215 C=CODE    S=_TEXT    G=(none)   M=C:\XHARBOUR\LIB\COMMON.LIB|hbtrace ACBP=A9
 0001:00052D24 000007CA C=CODE    S=_TEXT    G=(none)   M=C:\XHARBOUR\LIB\COMMON.LIB|hbver ACBP=A9
 0001:000534F0 00000736 C=CODE    S=_TEXT    G=(none)   M=C:\XHARBOUR\LIB\COMMON.LIB|expropt1 ACBP=A9
 0001:00053C28 0000103B C=CODE    S=_TEXT    G=(none)   M=C:\XHARBOUR\LIB\COMMON.LIB|expropt2 ACBP=A9
 0001:00054C64 00000060 C=CODE    S=_TEXT    G=(none)   M=C:\XHARBOUR\LIB\COMMON.LIB|reserved ACBP=A9
 0001:00054CC4 00001F0C C=CODE    S=_TEXT    G=(none)   M=C:\XHARBOUR\LIB\GTWIN.LIB|gtwin ACBP=A9
 0001:00056BD0 00000095 C=CODE    S=_TEXT    G=(none)   M=C:\XHARBOUR\LIB\GTWIN.LIB|mousewin ACBP=A9
 0001:00056C68 0000002B C=CODE    S=_TEXT    G=(none)   M=C:\BORLAND\BCC55\LIB\CW32.LIB|calloc ACBP=A9
 0001:00056C94 0000000F C=CODE    S=_TEXT    G=(none)   M=C:\BORLAND\BCC55\LIB\CW32.LIB|del ACBP=A9
 0001:00056CA4 0000000F C=CODE    S=_TEXT    G=(none)   M=C:\BORLAND\BCC55\LIB\CW32.LIB|delarray ACBP=A9
 0001:00056CB4 00000111 C=CODE    S=_TEXT    G=(none)   M=C:\BORLAND\BCC55\LIB\CW32.LIB|virtmem ACBP=A9
 0001:00056DC8 0000009F C=CODE    S=_TEXT    G=(none)   M=C:\BORLAND\BCC55\LIB\CW32.LIB|hrdir_b ACBP=A9
 0001:00056E68 00000020 C=CODE    S=_TEXT    G=(none)   M=C:\BORLAND\BCC55\LIB\CW32.LIB|hrdir_mf ACBP=A9
 0001:00056E88 00000016 C=CODE    S=_TEXT    G=(none)   M=C:\BORLAND\BCC55\LIB\CW32.LIB|hrdir_r ACBP=A9
 0001:00056EA0 000000B8 C=CODE    S=_TEXT    G=(none)   M=C:\BORLAND\BCC55\LIB\CW32.LIB|hrdir_s ACBP=A9
 0001:00056F58 00000001 C=CODE    S=_TEXT    G=(none)   M=C:\BORLAND\BCC55\LIB\CW32.LIB|hrdir_us ACBP=A9
 0001:00056F5C 000009CC C=CODE    S=_TEXT    G=(none)   M=C:\BORLAND\BCC55\LIB\CW32.LIB|heap ACBP=A9
 0001:00057928 00000292 C=CODE    S=_TEXT    G=(none)   M=C:\BORLAND\BCC55\LIB\CW32.LIB|realloc ACBP=A9
 0001:00057BBC 00000001 C=CODE    S=_TEXT    G=(none)   M=C:\BORLAND\BCC55\LIB\CW32.LIB|crtlst_i ACBP=A9
 0001:00057BC0 00000001 C=CODE    S=_TEXT    G=(none)   M=C:\BORLAND\BCC55\LIB\CW32.LIB|crtlst_l ACBP=A9
 0001:00057BC4 0000001E C=CODE    S=_TEXT    G=(none)   M=C:\BORLAND\BCC55\LIB\CW32.LIB|memchr ACBP=A9
 0001:00057BE4 00000024 C=CODE    S=_TEXT    G=(none)   M=C:\BORLAND\BCC55\LIB\CW32.LIB|memcpy ACBP=A9
 0001:00057C08 0000004A C=CODE    S=_TEXT    G=(none)   M=C:\BORLAND\BCC55\LIB\CW32.LIB|memmove ACBP=A9
 0001:00057C54 0000008A C=CODE    S=_TEXT    G=(none)   M=C:\BORLAND\BCC55\LIB\CW32.LIB|memset ACBP=A9
 0001:00057CE0 00000018 C=CODE    S=_TEXT    G=(none)   M=C:\BORLAND\BCC55\LIB\CW32.LIB|wmemset ACBP=A9
 0001:00057CF8 0000003C C=CODE    S=_TEXT    G=(none)   M=C:\BORLAND\BCC55\LIB\CW32.LIB|strcat ACBP=A9
 0001:00057D34 00000053 C=CODE    S=_TEXT    G=(none)   M=C:\BORLAND\BCC55\LIB\CW32.LIB|strchr ACBP=A9
 0001:00057D88 0000005A C=CODE    S=_TEXT    G=(none)   M=C:\BORLAND\BCC55\LIB\CW32.LIB|strlen ACBP=A9
 0001:00057DE4 0000006E C=CODE    S=_TEXT    G=(none)   M=C:\BORLAND\BCC55\LIB\CW32.LIB|strncat ACBP=A9
 0001:00057E54 00000027 C=CODE    S=_TEXT    G=(none)   M=C:\BORLAND\BCC55\LIB\CW32.LIB|strncmp ACBP=A9
 0001:00057E7C 0000006C C=CODE    S=_TEXT    G=(none)   M=C:\BORLAND\BCC55\LIB\CW32.LIB|memcmp ACBP=A9
 0001:00057EE8 00000032 C=CODE    S=_TEXT    G=(none)   M=C:\BORLAND\BCC55\LIB\CW32.LIB|strdup ACBP=A9
 0001:00057F1C 0000004F C=CODE    S=_TEXT    G=(none)   M=C:\BORLAND\BCC55\LIB\CW32.LIB|strncpy ACBP=A9
 0001:00057F6C 0000002B C=CODE    S=_TEXT    G=(none)   M=C:\BORLAND\BCC55\LIB\CW32.LIB|strpbrk ACBP=A9
 0001:00057F98 00000029 C=CODE    S=_TEXT    G=(none)   M=C:\BORLAND\BCC55\LIB\CW32.LIB|strrchr ACBP=A9
 0001:00057FC4 00000054 C=CODE    S=_TEXT    G=(none)   M=C:\BORLAND\BCC55\LIB\CW32.LIB|strstr ACBP=A9
 0001:00058018 00000067 C=CODE    S=_TEXT    G=(none)   M=C:\BORLAND\BCC55\LIB\CW32.LIB|strtok ACBP=A9
 0001:00058080 00000037 C=CODE    S=_TEXT    G=(none)   M=C:\BORLAND\BCC55\LIB\CW32.LIB|_stpcpy ACBP=A9
 0001:000580B8 00000018 C=CODE    S=_TEXT    G=(none)   M=C:\BORLAND\BCC55\LIB\CW32.LIB|wcslen ACBP=A9
 0001:000580D0 0000003F C=CODE    S=_TEXT    G=(none)   M=C:\BORLAND\BCC55\LIB\CW32.LIB|wcscpy ACBP=A9
 0001:00058110 00000070 C=CODE    S=_TEXT    G=(none)   M=C:\BORLAND\BCC55\LIB\CW32.LIB|xxa ACBP=A9
 0001:00058180 00000778 C=CODE    S=_TEXT    G=(none)   M=C:\BORLAND\BCC55\LIB\CW32.LIB|xxtype ACBP=A9
 0001:000588D2 000000B6 C=CODE    S=_TEXT    G=(none)   M=C:\BORLAND\BCC55\LIB\CW32.LIB|xxut ACBP=A9
 0001:00058974 0000014B C=CODE    S=_TEXT    G=(none)   M=C:\BORLAND\BCC55\LIB\CW32.LIB|xxv ACBP=A9
 0001:00058AC0 0000000A C=CODE    S=_TEXT    G=(none)   M=C:\BORLAND\BCC55\LIB\CW32.LIB|defhandl ACBP=A9
 0001:00058ACC 00000179 C=CODE    S=_TEXT    G=(none)   M=C:\BORLAND\BCC55\LIB\CW32.LIB|except ACBP=A9
 0001:00058C48 00000046 C=CODE    S=_TEXT    G=(none)   M=C:\BORLAND\BCC55\LIB\CW32.LIB|setexc ACBP=A9
 0001:00058C90 00000022 C=CODE    S=_TEXT    G=(none)   M=C:\BORLAND\BCC55\LIB\CW32.LIB|ta ACBP=A9
 0001:00058CB4 0000003C C=CODE    S=_TEXT    G=(none)   M=C:\BORLAND\BCC55\LIB\CW32.LIB|__access ACBP=A9
 0001:00058CF0 00000060 C=CODE    S=_TEXT    G=(none)   M=C:\BORLAND\BCC55\LIB\CW32.LIB|__close ACBP=A9
 0001:00058D50 00000013 C=CODE    S=_TEXT    G=(none)   M=C:\BORLAND\BCC55\LIB\CW32.LIB|__dup ACBP=A9
 0001:00058D64 000000EF C=CODE    S=_TEXT    G=(none)   M=C:\BORLAND\BCC55\LIB\CW32.LIB|__dup2 ACBP=A9
 0001:00058E54 00000086 C=CODE    S=_TEXT    G=(none)   M=C:\BORLAND\BCC55\LIB\CW32.LIB|__eof ACBP=A9
 0001:00058EDC 00000123 C=CODE    S=_TEXT    G=(none)   M=C:\BORLAND\BCC55\LIB\CW32.LIB|__ftrunc ACBP=A9
 0001:00059000 00000047 C=CODE    S=_TEXT    G=(none)   M=C:\BORLAND\BCC55\LIB\CW32.LIB|__isatty ACBP=A9
 0001:00059048 00000076 C=CODE    S=_TEXT    G=(none)   M=C:\BORLAND\BCC55\LIB\CW32.LIB|__lseek ACBP=A9
 0001:000590C0 000001FA C=CODE    S=_TEXT    G=(none)   M=C:\BORLAND\BCC55\LIB\CW32.LIB|__open ACBP=A9
 0001:000592BC 0000019A C=CODE    S=_TEXT    G=(none)   M=C:\BORLAND\BCC55\LIB\CW32.LIB|__read ACBP=A9
 0001:00059458 000001FA C=CODE    S=_TEXT    G=(none)   M=C:\BORLAND\BCC55\LIB\CW32.LIB|__wopen ACBP=A9
 0001:00059654 0000011C C=CODE    S=_TEXT    G=(none)   M=C:\BORLAND\BCC55\LIB\CW32.LIB|__write ACBP=A9
 0001:00059770 00000011 C=CODE    S=_TEXT    G=(none)   M=C:\BORLAND\BCC55\LIB\CW32.LIB|_cfinfo ACBP=A9
 0001:00059784 00000038 C=CODE    S=_TEXT    G=(none)   M=C:\BORLAND\BCC55\LIB\CW32.LIB|_flshall ACBP=A9
 0001:000597BC 000000D3 C=CODE    S=_TEXT    G=(none)   M=C:\BORLAND\BCC55\LIB\CW32.LIB|_pipe ACBP=A9
 0001:00059890 00000061 C=CODE    S=_TEXT    G=(none)   M=C:\BORLAND\BCC55\LIB\CW32.LIB|_read ACBP=A9
 0001:000598F1 00000017 C=CODE    S=_TEXT    G=(none)   M=C:\BORLAND\BCC55\LIB\CW32.LIB|_umask ACBP=A9
 0001:000598F4 00000035 C=CODE    S=_TEXT    G=(none)   M=C:\BORLAND\BCC55\LIB\CW32.LIB|_wopen ACBP=A9
 0001:0005992C 00000061 C=CODE    S=_TEXT    G=(none)   M=C:\BORLAND\BCC55\LIB\CW32.LIB|_write ACBP=A9
 0001:00059990 00000008 C=CODE    S=_TEXT    G=(none)   M=C:\BORLAND\BCC55\LIB\CW32.LIB|access ACBP=A9
 0001:00059998 0000007D C=CODE    S=_TEXT    G=(none)   M=C:\BORLAND\BCC55\LIB\CW32.LIB|allocbuf ACBP=A9
 0001:00059A18 0000009B C=CODE    S=_TEXT    G=(none)   M=C:\BORLAND\BCC55\LIB\CW32.LIB|chdrive ACBP=A9
 0001:00059AB4 00000008 C=CODE    S=_TEXT    G=(none)   M=C:\BORLAND\BCC55\LIB\CW32.LIB|chsize ACBP=A9
 0001:00059ABC 00000008 C=CODE    S=_TEXT    G=(none)   M=C:\BORLAND\BCC55\LIB\CW32.LIB|close ACBP=A9
 0001:00059AC4 00000008 C=CODE    S=_TEXT    G=(none)   M=C:\BORLAND\BCC55\LIB\CW32.LIB|dup ACBP=A9
 0001:00059ACC 00000008 C=CODE    S=_TEXT    G=(none)   M=C:\BORLAND\BCC55\LIB\CW32.LIB|dup2 ACBP=A9
 0001:00059AD4 00000008 C=CODE    S=_TEXT    G=(none)   M=C:\BORLAND\BCC55\LIB\CW32.LIB|eof ACBP=A9
 0001:00059ADC 0000008E C=CODE    S=_TEXT    G=(none)   M=C:\BORLAND\BCC55\LIB\CW32.LIB|fclose ACBP=A9
 0001:00059B6C 0000007F C=CODE    S=_TEXT    G=(none)   M=C:\BORLAND\BCC55\LIB\CW32.LIB|fflush ACBP=A9
 0001:00059BEC 0000005A C=CODE    S=_TEXT    G=(none)   M=C:\BORLAND\BCC55\LIB\CW32.LIB|flushout ACBP=A9
 0001:00059C48 00000023 C=CODE    S=_TEXT    G=(none)   M=C:\BORLAND\BCC55\LIB\CW32.LIB|fmodeptr ACBP=A9
 0001:00059C6C 000001DD C=CODE    S=_TEXT    G=(none)   M=C:\BORLAND\BCC55\LIB\CW32.LIB|fopen ACBP=A9
 0001:00059E4C 00000022 C=CODE    S=_TEXT    G=(none)   M=C:\BORLAND\BCC55\LIB\CW32.LIB|fprintf ACBP=A9
 0001:00059E70 000000D9 C=CODE    S=_TEXT    G=(none)   M=C:\BORLAND\BCC55\LIB\CW32.LIB|fputn ACBP=A9
 0001:00059F4C 0000013E C=CODE    S=_TEXT    G=(none)   M=C:\BORLAND\BCC55\LIB\CW32.LIB|fseek ACBP=A9
 0001:0005A08C 000000D4 C=CODE    S=_TEXT    G=(none)   M=C:\BORLAND\BCC55\LIB\CW32.LIB|fullpath ACBP=A9
 0001:0005A160 00000140 C=CODE    S=_TEXT    G=(none)   M=C:\BORLAND\BCC55\LIB\CW32.LIB|getdcwd ACBP=A9
 0001:0005A2A0 00000076 C=CODE    S=_TEXT    G=(none)   M=C:\BORLAND\BCC55\LIB\CW32.LIB|ioerror ACBP=A9
 0001:0005A318 00000008 C=CODE    S=_TEXT    G=(none)   M=C:\BORLAND\BCC55\LIB\CW32.LIB|isatty ACBP=A9
 0001:0005A320 0000007F C=CODE    S=_TEXT    G=(none)   M=C:\BORLAND\BCC55\LIB\CW32.LIB|lock ACBP=A9
 0001:0005A3A0 00000110 C=CODE    S=_TEXT    G=(none)   M=C:\BORLAND\BCC55\LIB\CW32.LIB|lputc ACBP=A9
 0001:0005A4B0 00000008 C=CODE    S=_TEXT    G=(none)   M=C:\BORLAND\BCC55\LIB\CW32.LIB|lseek ACBP=A9
 0001:0005A4B8 00000091 C=CODE    S=_TEXT    G=(none)   M=C:\BORLAND\BCC55\LIB\CW32.LIB|mkname ACBP=A9
 0001:0005A54C 00000010 C=CODE    S=_TEXT    G=(none)   M=C:\BORLAND\BCC55\LIB\CW32.LIB|open ACBP=A9
 0001:0005A55C 00000079 C=CODE    S=_TEXT    G=(none)   M=C:\BORLAND\BCC55\LIB\CW32.LIB|perror ACBP=A9
 0001:0005A55C 00000023 C=CODE    S=_TEXT    G=(none)   M=C:\BORLAND\BCC55\LIB\CW32.LIB|printf ACBP=A9
 0001:0005A580 00000008 C=CODE    S=_TEXT    G=(none)   M=C:\BORLAND\BCC55\LIB\CW32.LIB|read ACBP=A9
 0001:0005A588 0000006B C=CODE    S=_TEXT    G=(none)   M=C:\BORLAND\BCC55\LIB\CW32.LIB|setmode ACBP=A9
 0001:0005A5F4 0000004D C=CODE    S=_TEXT    G=(none)   M=C:\BORLAND\BCC55\LIB\CW32.LIB|setvbuf ACBP=A9
 0001:0005A644 00000078 C=CODE    S=_TEXT    G=(none)   M=C:\BORLAND\BCC55\LIB\CW32.LIB|sprintf ACBP=A9
 0001:0005A6BC 00000115 C=CODE    S=_TEXT    G=(none)   M=C:\BORLAND\BCC55\LIB\CW32.LIB|streams ACBP=A9
 0001:0005A7D4 00000016 C=CODE    S=_TEXT    G=(none)   M=C:\BORLAND\BCC55\LIB\CW32.LIB|tmpnam ACBP=A9
 0001:0005A7EC 0000001A C=CODE    S=_TEXT    G=(none)   M=C:\BORLAND\BCC55\LIB\CW32.LIB|unlink ACBP=A9
 0001:0005A808 00000022 C=CODE    S=_TEXT    G=(none)   M=C:\BORLAND\BCC55\LIB\CW32.LIB|vfprintf ACBP=A9
 0001:0005A82C 000009EC C=CODE    S=_TEXT    G=(none)   M=C:\BORLAND\BCC55\LIB\CW32.LIB|vprinter ACBP=A9
 0001:0005B218 00000008 C=CODE    S=_TEXT    G=(none)   M=C:\BORLAND\BCC55\LIB\CW32.LIB|write ACBP=A9
 0001:0005B220 0000002E C=CODE    S=_TEXT    G=(none)   M=C:\BORLAND\BCC55\LIB\CW32.LIB|xfclose ACBP=A9
 0001:0005B250 00000027 C=CODE    S=_TEXT    G=(none)   M=C:\BORLAND\BCC55\LIB\CW32.LIB|xfflush ACBP=A9
 0001:0005B278 00000051 C=CODE    S=_TEXT    G=(none)   M=C:\BORLAND\BCC55\LIB\CW32.LIB|getinfo ACBP=A9
 0001:0005B2CC 00000102 C=CODE    S=_TEXT    G=(none)   M=C:\BORLAND\BCC55\LIB\CW32.LIB|is ACBP=A9
 0001:0005B3D0 00000103 C=CODE    S=_TEXT    G=(none)   M=C:\BORLAND\BCC55\LIB\CW32.LIB|wis ACBP=A9
 0001:0005B4D4 00000043 C=CODE    S=_TEXT    G=(none)   M=C:\BORLAND\BCC55\LIB\CW32.LIB|isctype ACBP=A9
 0001:0005B518 00000055 C=CODE    S=_TEXT    G=(none)   M=C:\BORLAND\BCC55\LIB\CW32.LIB|iswctype ACBP=A9
 0001:0005B570 00000054 C=CODE    S=_TEXT    G=(none)   M=C:\BORLAND\BCC55\LIB\CW32.LIB|ltolower ACBP=A9
 0001:0005B5C4 00000054 C=CODE    S=_TEXT    G=(none)   M=C:\BORLAND\BCC55\LIB\CW32.LIB|ltowlwr ACBP=A9
 0001:0005B618 00000054 C=CODE    S=_TEXT    G=(none)   M=C:\BORLAND\BCC55\LIB\CW32.LIB|ltoupper ACBP=A9
 0001:0005B66C 00000054 C=CODE    S=_TEXT    G=(none)   M=C:\BORLAND\BCC55\LIB\CW32.LIB|ltowupr ACBP=A9
 0001:0005B6C0 000004D0 C=CODE    S=_TEXT    G=(none)   M=C:\BORLAND\BCC55\LIB\CW32.LIB|mbyte1 ACBP=A9
 0001:0005BB90 00000200 C=CODE    S=_TEXT    G=(none)   M=C:\BORLAND\BCC55\LIB\CW32.LIB|_ll ACBP=A9
 0001:0005BD90 0000001D C=CODE    S=_TEXT    G=(none)   M=C:\BORLAND\BCC55\LIB\CW32.LIB|_finite ACBP=A9
 0001:0005BDB0 00000045 C=CODE    S=_TEXT    G=(none)   M=C:\BORLAND\BCC55\LIB\CW32.LIB|_isnan ACBP=A9
 0001:0005BDF8 000000B0 C=CODE    S=_TEXT    G=(none)   M=C:\BORLAND\BCC55\LIB\CW32.LIB|_matherr ACBP=A9
 0001:0005BEA8 00000188 C=CODE    S=_TEXT    G=(none)   M=C:\BORLAND\BCC55\LIB\CW32.LIB|_pow10 ACBP=A9
 0001:0005C030 00000013 C=CODE    S=_TEXT    G=(none)   M=C:\BORLAND\BCC55\LIB\CW32.LIB|atof ACBP=A9
 0001:0005C044 00000077 C=CODE    S=_TEXT    G=(none)   M=C:\BORLAND\BCC55\LIB\CW32.LIB|atol ACBP=A9
 0001:0005C0BC 0000001C C=CODE    S=_TEXT    G=(none)   M=C:\BORLAND\BCC55\LIB\CW32.LIB|ceil ACBP=A9
 0001:0005C0D8 00000013 C=CODE    S=_TEXT    G=(none)   M=C:\BORLAND\BCC55\LIB\CW32.LIB|clear87 ACBP=A9
 0001:0005C0EC 0000002F C=CODE    S=_TEXT    G=(none)   M=C:\BORLAND\BCC55\LIB\CW32.LIB|ctrl87 ACBP=A9
 0001:0005C11C 00000018 C=CODE    S=_TEXT    G=(none)   M=C:\BORLAND\BCC55\LIB\CW32.LIB|cvtentry ACBP=A9
 0001:0005C134 00000018 C=CODE    S=_TEXT    G=(none)   M=C:\BORLAND\BCC55\LIB\CW32.LIB|cvtfak ACBP=A9
 0001:0005C14C 00000018 C=CODE    S=_TEXT    G=(none)   M=C:\BORLAND\BCC55\LIB\CW32.LIB|cvtfakw ACBP=A9
 0001:0005C164 0000006C C=CODE    S=_TEXT    G=(none)   M=C:\BORLAND\BCC55\LIB\CW32.LIB|exp ACBP=A9
 0001:0005C1D0 000000CD C=CODE    S=_TEXT    G=(none)   M=C:\BORLAND\BCC55\LIB\CW32.LIB|f87exp ACBP=A9
 0001:0005C2A0 00000048 C=CODE    S=_TEXT    G=(none)   M=C:\BORLAND\BCC55\LIB\CW32.LIB|f87log ACBP=A9
 0001:0005C2E8 0000000D C=CODE    S=_TEXT    G=(none)   M=C:\BORLAND\BCC55\LIB\CW32.LIB|fabs ACBP=A9
 0001:0005C2F8 0000001C C=CODE    S=_TEXT    G=(none)   M=C:\BORLAND\BCC55\LIB\CW32.LIB|floor ACBP=A9
 0001:0005C314 0000004D C=CODE    S=_TEXT    G=(none)   M=C:\BORLAND\BCC55\LIB\CW32.LIB|fmod ACBP=A9
 0001:0005C364 00000016 C=CODE    S=_TEXT    G=(none)   M=C:\BORLAND\BCC55\LIB\CW32.LIB|fpreset ACBP=A9
 0001:0005C37C 00000028 C=CODE    S=_TEXT    G=(none)   M=C:\BORLAND\BCC55\LIB\CW32.LIB|ftol ACBP=A9
 0001:0005C3A4 0000002D C=CODE    S=_TEXT    G=(none)   M=C:\BORLAND\BCC55\LIB\CW32.LIB|fuildq ACBP=A9
 0001:0005C3D4 00000021 C=CODE    S=_TEXT    G=(none)   M=C:\BORLAND\BCC55\LIB\CW32.LIB|fuistq ACBP=A9
 0001:0005C3F8 00000011 C=CODE    S=_TEXT    G=(none)   M=C:\BORLAND\BCC55\LIB\CW32.LIB|fxam ACBP=A9
 0001:0005C40C 000000B1 C=CODE    S=_TEXT    G=(none)   M=C:\BORLAND\BCC55\LIB\CW32.LIB|int64toa ACBP=A9
 0001:0005C4C0 00000117 C=CODE    S=_TEXT    G=(none)   M=C:\BORLAND\BCC55\LIB\CW32.LIB|ldtrunc ACBP=A9
 0001:0005C5D8 0000006D C=CODE    S=_TEXT    G=(none)   M=C:\BORLAND\BCC55\LIB\CW32.LIB|log ACBP=A9
 0001:0005C648 0000006D C=CODE    S=_TEXT    G=(none)   M=C:\BORLAND\BCC55\LIB\CW32.LIB|log10 ACBP=A9
 0001:0005C6B8 0000008F C=CODE    S=_TEXT    G=(none)   M=C:\BORLAND\BCC55\LIB\CW32.LIB|longtoa ACBP=A9
 0001:0005C748 00000075 C=CODE    S=_TEXT    G=(none)   M=C:\BORLAND\BCC55\LIB\CW32.LIB|ltoa1 ACBP=A9
 0001:0005C7C0 0000002E C=CODE    S=_TEXT    G=(none)   M=C:\BORLAND\BCC55\LIB\CW32.LIB|matherrl ACBP=A9
 0001:0005C7F0 00000016 C=CODE    S=_TEXT    G=(none)   M=C:\BORLAND\BCC55\LIB\CW32.LIB|mathptr ACBP=A9
 0001:0005C808 000001DC C=CODE    S=_TEXT    G=(none)   M=C:\BORLAND\BCC55\LIB\CW32.LIB|pow ACBP=A9
 0001:0005C9E4 00000025 C=CODE    S=_TEXT    G=(none)   M=C:\BORLAND\BCC55\LIB\CW32.LIB|qdiv10 ACBP=A9
 0001:0005CA0C 0000002E C=CODE    S=_TEXT    G=(none)   M=C:\BORLAND\BCC55\LIB\CW32.LIB|qmul10 ACBP=A9
 0001:0005CA3C 000002F9 C=CODE    S=_TEXT    G=(none)   M=C:\BORLAND\BCC55\LIB\CW32.LIB|realcvt ACBP=A9
 0001:0005CD38 00000331 C=CODE    S=_TEXT    G=(none)   M=C:\BORLAND\BCC55\LIB\CW32.LIB|realcvtw ACBP=A9
 0001:0005D06C 0000002C C=CODE    S=_TEXT    G=(none)   M=C:\BORLAND\BCC55\LIB\CW32.LIB|round ACBP=A9
 0001:0005D098 000004E1 C=CODE    S=_TEXT    G=(none)   M=C:\BORLAND\BCC55\LIB\CW32.LIB|scantod ACBP=A9
 0001:0005D57C 000004DD C=CODE    S=_TEXT    G=(none)   M=C:\BORLAND\BCC55\LIB\CW32.LIB|scanwtod ACBP=A9
 0001:0005DA5C 0000003A C=CODE    S=_TEXT    G=(none)   M=C:\BORLAND\BCC55\LIB\CW32.LIB|sqrt ACBP=A9
 0001:0005DA98 000000C1 C=CODE    S=_TEXT    G=(none)   M=C:\BORLAND\BCC55\LIB\CW32.LIB|strtod ACBP=A9
 0001:0005DB5C 000002D2 C=CODE    S=_TEXT    G=(none)   M=C:\BORLAND\BCC55\LIB\CW32.LIB|xcvt ACBP=A9
 0001:0005DE30 000002F1 C=CODE    S=_TEXT    G=(none)   M=C:\BORLAND\BCC55\LIB\CW32.LIB|xcvtw ACBP=A9
 0001:0005E124 00000139 C=CODE    S=_TEXT    G=(none)   M=C:\BORLAND\BCC55\LIB\CW32.LIB|mbctype ACBP=A9
 0001:0005E260 0000003D C=CODE    S=_TEXT    G=(none)   M=C:\BORLAND\BCC55\LIB\CW32.LIB|mbisalp ACBP=A9
 0001:0005E2A0 0000001A C=CODE    S=_TEXT    G=(none)   M=C:\BORLAND\BCC55\LIB\CW32.LIB|mbisdgt ACBP=A9
 0001:0005E2BC 0000001A C=CODE    S=_TEXT    G=(none)   M=C:\BORLAND\BCC55\LIB\CW32.LIB|mbisspc ACBP=A9
 0001:0005E2D8 00000050 C=CODE    S=_TEXT    G=(none)   M=C:\BORLAND\BCC55\LIB\CW32.LIB|mbschr ACBP=A9
 0001:0005E328 00000055 C=CODE    S=_TEXT    G=(none)   M=C:\BORLAND\BCC55\LIB\CW32.LIB|mbsdec ACBP=A9
 0001:0005E380 0000009B C=CODE    S=_TEXT    G=(none)   M=C:\BORLAND\BCC55\LIB\CW32.LIB|mbsicmp ACBP=A9
 0001:0005E41C 00000054 C=CODE    S=_TEXT    G=(none)   M=C:\BORLAND\BCC55\LIB\CW32.LIB|mbsnbcpy ACBP=A9
 0001:0005E470 000000BF C=CODE    S=_TEXT    G=(none)   M=C:\BORLAND\BCC55\LIB\CW32.LIB|mbsnbicm ACBP=A9
 0001:0005E530 00000056 C=CODE    S=_TEXT    G=(none)   M=C:\BORLAND\BCC55\LIB\CW32.LIB|mbsrchr ACBP=A9
 0001:0005E588 000000A6 C=CODE    S=_TEXT    G=(none)   M=C:\BORLAND\BCC55\LIB\CW32.LIB|assert ACBP=A9
 0001:0005E630 000000B8 C=CODE    S=_TEXT    G=(none)   M=C:\BORLAND\BCC55\LIB\CW32.LIB|ermsghlp ACBP=A9
 0001:0005E6E8 00000006 C=CODE    S=_TEXT    G=(none)   M=C:\BORLAND\BCC55\LIB\CW32.LIB|errno ACBP=A9
 0001:0005E6E8 0000019B C=CODE    S=_TEXT    G=(none)   M=C:\BORLAND\BCC55\LIB\CW32.LIB|errormsg ACBP=A9
 0001:0005E884 00000089 C=CODE    S=_TEXT    G=(none)   M=C:\BORLAND\BCC55\LIB\CW32.LIB|platform ACBP=A9
 0001:0005E910 00000236 C=CODE    S=_TEXT    G=(none)   M=C:\BORLAND\BCC55\LIB\CW32.LIB|qsort ACBP=A9
 0001:0005EB48 00000008 C=CODE    S=_TEXT    G=(none)   M=C:\BORLAND\BCC55\LIB\CW32.LIB|cwait ACBP=A9
 0001:0005EB50 00000022 C=CODE    S=_TEXT    G=(none)   M=C:\BORLAND\BCC55\LIB\CW32.LIB|abort ACBP=A9
 0001:0005EB74 000000A7 C=CODE    S=_TEXT    G=(none)   M=C:\BORLAND\BCC55\LIB\CW32.LIB|exit ACBP=A9
 0001:0005EC1C 00000057 C=CODE    S=_TEXT    G=(none)   M=C:\BORLAND\BCC55\LIB\CW32.LIB|getenv ACBP=A9
 0001:0005EC74 0000001A C=CODE    S=_TEXT    G=(none)   M=C:\BORLAND\BCC55\LIB\CW32.LIB|initwild ACBP=A9
 0001:0005EC90 00000011 C=CODE    S=_TEXT    G=(none)   M=C:\BORLAND\BCC55\LIB\CW32.LIB|exparg ACBP=A9
 0001:0005ECA4 00000011 C=CODE    S=_TEXT    G=(none)   M=C:\BORLAND\BCC55\LIB\CW32.LIB|wexparg ACBP=A9
 0001:0005ECB8 00000027 C=CODE    S=_TEXT    G=(none)   M=C:\BORLAND\BCC55\LIB\CW32.LIB|initargv ACBP=A9
 0001:0005ECE0 0000016C C=CODE    S=_TEXT    G=(none)   M=C:\BORLAND\BCC55\LIB\CW32.LIB|setargv ACBP=A9
 0001:0005EE4C 000001E5 C=CODE    S=_TEXT    G=(none)   M=C:\BORLAND\BCC55\LIB\CW32.LIB|hsargv ACBP=A9
 0001:0005F034 00000227 C=CODE    S=_TEXT    G=(none)   M=C:\BORLAND\BCC55\LIB\CW32.LIB|whsargv ACBP=A9
 0001:0005F25C 0000001D C=CODE    S=_TEXT    G=(none)   M=C:\BORLAND\BCC55\LIB\CW32.LIB|spawnvp ACBP=A9
 0001:0005F27C 0000002D C=CODE    S=_TEXT    G=(none)   M=C:\BORLAND\BCC55\LIB\CW32.LIB|srchenv ACBP=A9
 0001:0005F2AC 000000F5 C=CODE    S=_TEXT    G=(none)   M=C:\BORLAND\BCC55\LIB\CW32.LIB|srchstr ACBP=A9
 0001:0005F3A4 00000045 C=CODE    S=_TEXT    G=(none)   M=C:\BORLAND\BCC55\LIB\CW32.LIB|setargv0 ACBP=A9
 0001:0005F3EC 0000063B C=CODE    S=_TEXT    G=(none)   M=C:\BORLAND\BCC55\LIB\CW32.LIB|loadprog ACBP=A9
 0001:0005FA28 000001A0 C=CODE    S=_TEXT    G=(none)   M=C:\BORLAND\BCC55\LIB\CW32.LIB|setenvp ACBP=A9
 0001:0005FBC8 000002F8 C=CODE    S=_TEXT    G=(none)   M=C:\BORLAND\BCC55\LIB\CW32.LIB|signal ACBP=A9
 0001:0005FEC0 000001AB C=CODE    S=_TEXT    G=(none)   M=C:\BORLAND\BCC55\LIB\CW32.LIB|_cwait ACBP=A9
 0001:0006006C 00000157 C=CODE    S=_TEXT    G=(none)   M=C:\BORLAND\BCC55\LIB\CW32.LIB|initexit ACBP=A9
 0001:000601C4 000001A4 C=CODE    S=_TEXT    G=(none)   M=C:\BORLAND\BCC55\LIB\CW32.LIB|startup ACBP=A9
 0001:00060368 0000004F C=CODE    S=_TEXT    G=(none)   M=C:\BORLAND\BCC55\LIB\CW32.LIB|tlsstat ACBP=A9
 0001:000603B8 000001A9 C=CODE    S=_TEXT    G=(none)   M=C:\BORLAND\BCC55\LIB\CW32.LIB|gmtime ACBP=A9
 0001:00060564 000002A4 C=CODE    S=_TEXT    G=(none)   M=C:\BORLAND\BCC55\LIB\CW32.LIB|timefunc ACBP=A9
 0001:00060808 00000006 C=CODE    S=_TEXT    G=(none)   M=C:\BORLAND\BCC55\LIB\CW32.LIB|tzdata ACBP=A9
 0001:00060810 000001C8 C=CODE    S=_TEXT    G=(none)   M=C:\BORLAND\BCC55\LIB\CW32.LIB|tzset ACBP=A9
 0001:000609D8 00000008 C=CODE    S=_TEXT    G=(none)   M=C:\BORLAND\BCC55\LIB\CW32.LIB|_tzset ACBP=A9
 0001:000609E0 00000017 C=CODE    S=_TEXT    G=(none)   M=C:\BORLAND\BCC55\LIB\CW32.LIB|clock ACBP=A9
 0001:000609F8 0000009E C=CODE    S=_TEXT    G=(none)   M=C:\BORLAND\BCC55\LIB\CW32.LIB|ftime ACBP=A9
 0001:00060A98 00001BA2 C=CODE    S=_TEXT    G=(none)   M=C:\BORLAND\BCC55\LIB\CW32.LIB|xx ACBP=A9
 0002:00000138 000000A4 C=DATA    S=_DATA    G=DGROUP   M=C:\BORLAND\BCC55\LIB\C0X32.OBJ ACBP=A9
 0002:000001DC 00000204 C=DATA    S=_DATA    G=DGROUP   M=D:\DEV\SOURCE\PDV3\OBJ\GRAVADOR.OBJ ACBP=A9
 0002:000003E0 000049A0 C=DATA    S=_DATA    G=DGROUP   M=D:\DEV\SOURCE\PDV3\OBJ\SWGRAVA.OBJ ACBP=A9
 0002:00004D80 00000AF8 C=DATA    S=_DATA    G=DGROUP   M=C:\XHARBOUR\LIB\OPTCON.LIB|hvm ACBP=A9
 0002:00005878 00000284 C=DATA    S=_DATA    G=DGROUP   M=C:\XHARBOUR\LIB\OPTCON.LIB|classes ACBP=A9
 0002:00005AFC 000041A0 C=DATA    S=_DATA    G=DGROUP   M=C:\BORLAND\BCC55\LIB\BCC640.LIB|files ACBP=A9
 0002:00009C9C 00000AF4 C=DATA    S=_DATA    G=DGROUP   M=C:\BORLAND\BCC55\LIB\BCC640.LIB|files2 ACBP=A9
 0002:0000A790 00000978 C=DATA    S=_DATA    G=DGROUP   M=C:\XHARBOUR\LIB\LANG.LIB|msgen ACBP=A9
 0002:0000B108 000002BC C=DATA    S=_DATA    G=DGROUP   M=C:\XHARBOUR\LIB\VM.LIB|arrays ACBP=A9
 0002:0000B3C4 000000B4 C=DATA    S=_DATA    G=DGROUP   M=C:\XHARBOUR\LIB\VM.LIB|arrayshb ACBP=A9
 0002:0000B478 00000074 C=DATA    S=_DATA    G=DGROUP   M=C:\XHARBOUR\LIB\VM.LIB|cmdarg ACBP=A9
 0002:0000B4EC 00000010 C=DATA    S=_DATA    G=DGROUP   M=C:\XHARBOUR\LIB\VM.LIB|dynsym ACBP=A9
 0002:0000B4FC 000001CC C=DATA    S=_DATA    G=DGROUP   M=C:\XHARBOUR\LIB\VM.LIB|errorapi ACBP=A9
 0002:0000B6C8 00000110 C=DATA    S=_DATA    G=DGROUP   M=C:\XHARBOUR\LIB\VM.LIB|estack ACBP=A9
 0002:0000B7D8 0000001C C=DATA    S=_DATA    G=DGROUP   M=C:\XHARBOUR\LIB\VM.LIB|eval ACBP=A9
 0002:0000B7F4 00000004 C=DATA    S=_DATA    G=DGROUP   M=C:\XHARBOUR\LIB\VM.LIB|extend ACBP=A9
 0002:0000B7F8 00000018 C=DATA    S=_DATA    G=DGROUP   M=C:\XHARBOUR\LIB\VM.LIB|garbage ACBP=A9
 0002:0000B810 00000098 C=DATA    S=_DATA    G=DGROUP   M=C:\XHARBOUR\LIB\VM.LIB|hbi18n ACBP=A9
 0002:0000B8A8 0000007C C=DATA    S=_DATA    G=DGROUP   M=C:\XHARBOUR\LIB\VM.LIB|itemapi ACBP=A9
 0002:0000B924 00000024 C=DATA    S=_DATA    G=DGROUP   M=C:\XHARBOUR\LIB\VM.LIB|fastitem ACBP=A9
 0002:0000B948 00000024 C=DATA    S=_DATA    G=DGROUP   M=C:\XHARBOUR\LIB\VM.LIB|macro ACBP=A9
 0002:0000B96C 0000005C C=DATA    S=_DATA    G=DGROUP   M=C:\XHARBOUR\LIB\VM.LIB|memvars ACBP=A9
 0002:0000B9C8 000000C8 C=DATA    S=_DATA    G=DGROUP   M=C:\XHARBOUR\LIB\VM.LIB|proc ACBP=A9
 0002:0000BA90 00000160 C=DATA    S=_DATA    G=DGROUP   M=C:\XHARBOUR\LIB\VM.LIB|harbinit ACBP=A9
 0002:0000BBF0 00000004 C=DATA    S=_DATA    G=DGROUP   M=C:\XHARBOUR\LIB\RTL.LIB|at ACBP=A9
 0002:0000BBF4 00000044 C=DATA    S=_DATA    G=DGROUP   M=C:\XHARBOUR\LIB\RTL.LIB|cdpapi ACBP=A9
 0002:0000BC38 00000008 C=DATA    S=_DATA    G=DGROUP   M=C:\XHARBOUR\LIB\RTL.LIB|chrasc ACBP=A9
 0002:0000BC40 00000018 C=DATA    S=_DATA    G=DGROUP   M=C:\XHARBOUR\LIB\RTL.LIB|console ACBP=A9
 0002:0000BC58 00000028 C=DATA    S=_DATA    G=DGROUP   M=C:\XHARBOUR\LIB\RTL.LIB|dates ACBP=A9
 0002:0000BC80 00000038 C=DATA    S=_DATA    G=DGROUP   M=C:\XHARBOUR\LIB\RTL.LIB|dateshb ACBP=A9
 0002:0000BCB8 0000000C C=DATA    S=_DATA    G=DGROUP   M=C:\XHARBOUR\LIB\RTL.LIB|datesx ACBP=A9
 0002:0000BCC4 00000014 C=DATA    S=_DATA    G=DGROUP   M=C:\XHARBOUR\LIB\RTL.LIB|filesys ACBP=A9
 0002:0000BCD8 00000024 C=DATA    S=_DATA    G=DGROUP   M=C:\XHARBOUR\LIB\RTL.LIB|gtapi ACBP=A9
 0002:0000BCFC 00000020 C=DATA    S=_DATA    G=DGROUP   M=C:\XHARBOUR\LIB\RTL.LIB|hbffind ACBP=A9
 0002:0000BD1C 00000010 C=DATA    S=_DATA    G=DGROUP   M=C:\XHARBOUR\LIB\RTL.LIB|idle ACBP=A9
 0002:0000BD2C 00000008 C=DATA    S=_DATA    G=DGROUP   M=C:\XHARBOUR\LIB\RTL.LIB|inkey ACBP=A9
 0002:0000BD34 00000060 C=DATA    S=_DATA    G=DGROUP   M=C:\XHARBOUR\LIB\RTL.LIB|langapi ACBP=A9
 0002:0000BD94 00000008 C=DATA    S=_DATA    G=DGROUP   M=C:\XHARBOUR\LIB\RTL.LIB|left ACBP=A9
 0002:0000BD9C 00000004 C=DATA    S=_DATA    G=DGROUP   M=C:\XHARBOUR\LIB\RTL.LIB|len ACBP=A9
 0002:0000BDA0 00000154 C=DATA    S=_DATA    G=DGROUP   M=C:\XHARBOUR\LIB\RTL.LIB|math ACBP=A9
 0002:0000BEF4 00000004 C=DATA    S=_DATA    G=DGROUP   M=C:\XHARBOUR\LIB\RTL.LIB|memofile ACBP=A9
 0002:0000BEF8 00000008 C=DATA    S=_DATA    G=DGROUP   M=C:\XHARBOUR\LIB\RTL.LIB|minmax ACBP=A9
 0002:0000BF00 00000010 C=DATA    S=_DATA    G=DGROUP   M=C:\XHARBOUR\LIB\RTL.LIB|mouseapi ACBP=A9
 0002:0000BF10 00000004 C=DATA    S=_DATA    G=DGROUP   M=C:\XHARBOUR\LIB\RTL.LIB|padc ACBP=A9
 0002:0000BF14 00000004 C=DATA    S=_DATA    G=DGROUP   M=C:\XHARBOUR\LIB\RTL.LIB|padr ACBP=A9
 0002:0000BF18 000000E0 C=DATA    S=_DATA    G=DGROUP   M=C:\XHARBOUR\LIB\RTL.LIB|philes ACBP=A9
 0002:0000BFF8 00000D80 C=DATA    S=_DATA    G=DGROUP   M=C:\XHARBOUR\LIB\RTL.LIB|regex ACBP=A9
 0002:0000CD78 0000000C C=DATA    S=_DATA    G=DGROUP   M=C:\XHARBOUR\LIB\RTL.LIB|replic ACBP=A9
 0002:0000CD84 0000000C C=DATA    S=_DATA    G=DGROUP   M=C:\XHARBOUR\LIB\RTL.LIB|round ACBP=A9
 0002:0000CD90 00000088 C=DATA    S=_DATA    G=DGROUP   M=C:\XHARBOUR\LIB\RTL.LIB|set ACBP=A9
 0002:0000CE18 00000008 C=DATA    S=_DATA    G=DGROUP   M=C:\XHARBOUR\LIB\RTL.LIB|space ACBP=A9
 0002:0000CE20 00000028 C=DATA    S=_DATA    G=DGROUP   M=C:\XHARBOUR\LIB\RTL.LIB|str ACBP=A9
 0002:0000CE48 0000000C C=DATA    S=_DATA    G=DGROUP   M=C:\XHARBOUR\LIB\RTL.LIB|strcase ACBP=A9
 0002:0000CE54 0000000C C=DATA    S=_DATA    G=DGROUP   M=C:\XHARBOUR\LIB\RTL.LIB|strtran ACBP=A9
 0002:0000CE60 0000000C C=DATA    S=_DATA    G=DGROUP   M=C:\XHARBOUR\LIB\RTL.LIB|strzero ACBP=A9
 0002:0000CE6C 00000008 C=DATA    S=_DATA    G=DGROUP   M=C:\XHARBOUR\LIB\RTL.LIB|substr ACBP=A9
 0002:0000CE74 00000054 C=DATA    S=_DATA    G=DGROUP   M=C:\XHARBOUR\LIB\RTL.LIB|tprinter ACBP=A9
 0002:0000CEC8 0000002C C=DATA    S=_DATA    G=DGROUP   M=C:\XHARBOUR\LIB\RTL.LIB|trace ACBP=A9
 0002:0000CEF4 00000044 C=DATA    S=_DATA    G=DGROUP   M=C:\XHARBOUR\LIB\RTL.LIB|transfrm ACBP=A9
 0002:0000CF38 00000010 C=DATA    S=_DATA    G=DGROUP   M=C:\XHARBOUR\LIB\RTL.LIB|trim ACBP=A9
 0002:0000CF48 00000008 C=DATA    S=_DATA    G=DGROUP   M=C:\XHARBOUR\LIB\RTL.LIB|type ACBP=A9
 0002:0000CF50 00000004 C=DATA    S=_DATA    G=DGROUP   M=C:\XHARBOUR\LIB\RTL.LIB|val ACBP=A9
 0002:0000CF54 00000008 C=DATA    S=_DATA    G=DGROUP   M=C:\XHARBOUR\LIB\RTL.LIB|xhelp ACBP=A9
 0002:0000CF5C 00000004 C=DATA    S=_DATA    G=DGROUP   M=C:\XHARBOUR\LIB\RTL.LIB|xsavescr ACBP=A9
 0002:0000CF60 00000D88 C=DATA    S=_DATA    G=DGROUP   M=C:\XHARBOUR\LIB\RTL.LIB|alert ACBP=A9
 0002:0000DCE8 00000C48 C=DATA    S=_DATA    G=DGROUP   M=C:\XHARBOUR\LIB\RTL.LIB|cstr ACBP=A9
 0002:0000E930 00001728 C=DATA    S=_DATA    G=DGROUP   M=C:\XHARBOUR\LIB\RTL.LIB|errorsys ACBP=A9
 0002:00010058 00000ECC C=DATA    S=_DATA    G=DGROUP   M=C:\XHARBOUR\LIB\RTL.LIB|objfunc ACBP=A9
 0002:00010F24 000011B4 C=DATA    S=_DATA    G=DGROUP   M=C:\XHARBOUR\LIB\RTL.LIB|tclass ACBP=A9
 0002:000120D8 00000558 C=DATA    S=_DATA    G=DGROUP   M=C:\XHARBOUR\LIB\RTL.LIB|terror ACBP=A9
 0002:00012630 000007B8 C=DATA    S=_DATA    G=DGROUP   M=C:\XHARBOUR\LIB\RTL.LIB|tobject ACBP=A9
 0002:00012DE8 0000032C C=DATA    S=_DATA    G=DGROUP   M=C:\XHARBOUR\LIB\RTL.LIB|traceprg ACBP=A9
 0002:00013114 000003B8 C=DATA    S=_DATA    G=DGROUP   M=C:\XHARBOUR\LIB\RDD.LIB|dbcmd ACBP=A9
 0002:000134CC 00000050 C=DATA    S=_DATA    G=DGROUP   M=C:\XHARBOUR\LIB\RDD.LIB|workarea ACBP=A9
 0002:0001351C 000001E8 C=DATA    S=_DATA    G=DGROUP   M=C:\XHARBOUR\LIB\RDD.LIB|dbf1 ACBP=A9
 0002:00013704 000001CC C=DATA    S=_DATA    G=DGROUP   M=C:\XHARBOUR\LIB\RDD.LIB|delim1 ACBP=A9
 0002:000138D0 000001C8 C=DATA    S=_DATA    G=DGROUP   M=C:\XHARBOUR\LIB\RDD.LIB|sdf1 ACBP=A9
 0002:00013A98 00000088 C=DATA    S=_DATA    G=DGROUP   M=C:\XHARBOUR\LIB\RDD.LIB|dbf0 ACBP=A9
 0002:00013B20 000003AC C=DATA    S=_DATA    G=DGROUP   M=C:\XHARBOUR\LIB\RDD.LIB|dbfuncs ACBP=A9
 0002:00013ECC 00000094 C=DATA    S=_DATA    G=DGROUP   M=C:\XHARBOUR\LIB\RDD.LIB|delim0 ACBP=A9
 0002:00013F60 00000334 C=DATA    S=_DATA    G=DGROUP   M=C:\XHARBOUR\LIB\RDD.LIB|rddord ACBP=A9
 0002:00014294 000000A8 C=DATA    S=_DATA    G=DGROUP   M=C:\XHARBOUR\LIB\RDD.LIB|rddsys ACBP=A9
 0002:0001433C 00000088 C=DATA    S=_DATA    G=DGROUP   M=C:\XHARBOUR\LIB\RDD.LIB|sdf0 ACBP=A9
 0002:000143C4 00002094 C=DATA    S=_DATA    G=DGROUP   M=C:\XHARBOUR\LIB\MACRO.LIB|macroy ACBP=A9
 0002:00016458 00000038 C=DATA    S=_DATA    G=DGROUP   M=C:\XHARBOUR\LIB\MACRO.LIB|macroa ACBP=A9
 0002:00016490 00000130 C=DATA    S=_DATA    G=DGROUP   M=C:\XHARBOUR\LIB\MACRO.LIB|macrob ACBP=A9
 0002:000165C0 00000A6C C=DATA    S=_DATA    G=DGROUP   M=C:\XHARBOUR\LIB\MACRO.LIB|macroslx ACBP=A9
 0002:0001702C 000002E4 C=DATA    S=_DATA    G=DGROUP   M=C:\XHARBOUR\LIB\DBFNTX.LIB|dbfntx1 ACBP=A9
 0002:00017310 000000A4 C=DATA    S=_DATA    G=DGROUP   M=C:\XHARBOUR\LIB\DBFNTX.LIB|dbfntx0 ACBP=A9
 0002:000173B4 000001E0 C=DATA    S=_DATA    G=DGROUP   M=C:\XHARBOUR\LIB\DBFDBT.LIB|dbfdbt1 ACBP=A9
 0002:00017594 000000A4 C=DATA    S=_DATA    G=DGROUP   M=C:\XHARBOUR\LIB\DBFDBT.LIB|dbfdbt0 ACBP=A9
 0002:00017638 00000008 C=DATA    S=_DATA    G=DGROUP   M=C:\XHARBOUR\LIB\COMMON.LIB|hbfsapi ACBP=A9
 0002:00017640 000000B4 C=DATA    S=_DATA    G=DGROUP   M=C:\XHARBOUR\LIB\COMMON.LIB|hbtrace ACBP=A9
 0002:000176F4 00000404 C=DATA    S=_DATA    G=DGROUP   M=C:\XHARBOUR\LIB\COMMON.LIB|hbver ACBP=A9
 0002:00017AF8 0000015C C=DATA    S=_DATA    G=DGROUP   M=C:\XHARBOUR\LIB\COMMON.LIB|expropt1 ACBP=A9
 0002:00017C54 00000254 C=DATA    S=_DATA    G=DGROUP   M=C:\XHARBOUR\LIB\COMMON.LIB|reserved ACBP=A9
 0002:00017EA8 00000050 C=DATA    S=_DATA    G=DGROUP   M=C:\XHARBOUR\LIB\GTWIN.LIB|gtwin ACBP=A9
 0002:00017EF8 00000004 C=DATA    S=_DATA    G=DGROUP   M=C:\BORLAND\BCC55\LIB\CW32.LIB|virtmem ACBP=A9
 0002:00017EFC 00000098 C=DATA    S=_DATA    G=DGROUP   M=C:\BORLAND\BCC55\LIB\CW32.LIB|hrdir_b ACBP=A9
 0002:00017F94 00000020 C=DATA    S=_DATA    G=DGROUP   M=C:\BORLAND\BCC55\LIB\CW32.LIB|hrdir_s ACBP=A9
 0002:00017FB4 00000040 C=DATA    S=_DATA    G=DGROUP   M=C:\BORLAND\BCC55\LIB\CW32.LIB|heap ACBP=A9
 0002:00017FF4 00000004 C=DATA    S=_DATA    G=DGROUP   M=C:\BORLAND\BCC55\LIB\CW32.LIB|xx_xpf ACBP=A9
 0002:00017FF8 00000330 C=DATA    S=_DATA    G=DGROUP   M=C:\BORLAND\BCC55\LIB\CW32.LIB|xxtype ACBP=A9
 0002:00018318 0000003C C=DATA    S=_DATA    G=DGROUP   M=C:\BORLAND\BCC55\LIB\CW32.LIB|xxut ACBP=A9
 0002:00018354 000000E4 C=DATA    S=_DATA    G=DGROUP   M=C:\BORLAND\BCC55\LIB\CW32.LIB|xxv ACBP=A9
 0002:00018438 00000014 C=DATA    S=_DATA    G=DGROUP   M=C:\BORLAND\BCC55\LIB\CW32.LIB|except ACBP=A9
 0002:0001844C 0000000C C=DATA    S=_DATA    G=DGROUP   M=C:\BORLAND\BCC55\LIB\CW32.LIB|__dup2 ACBP=A9
 0002:00018458 00000004 C=DATA    S=_DATA    G=DGROUP   M=C:\BORLAND\BCC55\LIB\CW32.LIB|_cfinfo ACBP=A9
 0002:0001845C 00000004 C=DATA    S=_DATA    G=DGROUP   M=C:\BORLAND\BCC55\LIB\CW32.LIB|_umask ACBP=A9
 0002:00018460 00000004 C=DATA    S=_DATA    G=DGROUP   M=C:\BORLAND\BCC55\LIB\CW32.LIB|cfinfo ACBP=A9
 0002:00018464 00000004 C=DATA    S=_DATA    G=DGROUP   M=C:\BORLAND\BCC55\LIB\CW32.LIB|fmode ACBP=A9
 0002:00018468 00000004 C=DATA    S=_DATA    G=DGROUP   M=C:\BORLAND\BCC55\LIB\CW32.LIB|fmodeptr ACBP=A9
 0002:0001846C 0000012B C=DATA    S=_DATA    G=DGROUP   M=C:\BORLAND\BCC55\LIB\CW32.LIB|ioerror ACBP=A9
 0002:00018598 0000000C C=DATA    S=_DATA    G=DGROUP   M=C:\BORLAND\BCC55\LIB\CW32.LIB|mkname ACBP=A9
 0002:000185A4 0000047C C=DATA    S=_DATA    G=DGROUP   M=C:\BORLAND\BCC55\LIB\CW32.LIB|perror ACBP=A9
 0002:00018A20 00000076 C=DATA    S=_DATA    G=DGROUP   M=C:\BORLAND\BCC55\LIB\CW32.LIB|vprinter ACBP=A9
 0002:00018A98 00000202 C=DATA    S=_DATA    G=DGROUP   M=C:\BORLAND\BCC55\LIB\CW32.LIB|bigctype ACBP=A9
 0002:00018C9C 00000100 C=DATA    S=_DATA    G=DGROUP   M=C:\BORLAND\BCC55\LIB\CW32.LIB|clower ACBP=A9
 0002:00018D9C 00000100 C=DATA    S=_DATA    G=DGROUP   M=C:\BORLAND\BCC55\LIB\CW32.LIB|cupper ACBP=A9
 0002:00018E9C 00000260 C=DATA    S=_DATA    G=DGROUP   M=C:\BORLAND\BCC55\LIB\CW32.LIB|clocale ACBP=A9
 0002:000190FC 00000010 C=DATA    S=_DATA    G=DGROUP   M=C:\BORLAND\BCC55\LIB\CW32.LIB|_matherr ACBP=A9
 0002:0001910C 000000C0 C=DATA    S=_DATA    G=DGROUP   M=C:\BORLAND\BCC55\LIB\CW32.LIB|_pow10 ACBP=A9
 0002:000191CC 00000068 C=DATA    S=_DATA    G=DGROUP   M=C:\BORLAND\BCC55\LIB\CW32.LIB|cvtfak ACBP=A9
 0002:00019234 00000068 C=DATA    S=_DATA    G=DGROUP   M=C:\BORLAND\BCC55\LIB\CW32.LIB|cvtfakw ACBP=A9
 0002:0001929C 00000004 C=DATA    S=_DATA    G=DGROUP   M=C:\BORLAND\BCC55\LIB\CW32.LIB|deflt87 ACBP=A9
 0002:000192A0 0000000C C=DATA    S=_DATA    G=DGROUP   M=C:\BORLAND\BCC55\LIB\CW32.LIB|exp ACBP=A9
 0002:000192AC 00000012 C=DATA    S=_DATA    G=DGROUP   M=C:\BORLAND\BCC55\LIB\CW32.LIB|f87exp ACBP=A9
 0002:000192C0 00000016 C=DATA    S=_DATA    G=DGROUP   M=C:\BORLAND\BCC55\LIB\CW32.LIB|f87log ACBP=A9
 0002:000192D8 0000007C C=DATA    S=_DATA    G=DGROUP   M=C:\BORLAND\BCC55\LIB\CW32.LIB|hugeval ACBP=A9
 0002:00019354 00000008 C=DATA    S=_DATA    G=DGROUP   M=C:\BORLAND\BCC55\LIB\CW32.LIB|initcvt ACBP=A9
 0002:0001935C 0000000C C=DATA    S=_DATA    G=DGROUP   M=C:\BORLAND\BCC55\LIB\CW32.LIB|log ACBP=A9
 0002:00019368 00000010 C=DATA    S=_DATA    G=DGROUP   M=C:\BORLAND\BCC55\LIB\CW32.LIB|log10 ACBP=A9
 0002:00019378 00000008 C=DATA    S=_DATA    G=DGROUP   M=C:\BORLAND\BCC55\LIB\CW32.LIB|mathptr ACBP=A9
 0002:00019380 00000044 C=DATA    S=_DATA    G=DGROUP   M=C:\BORLAND\BCC55\LIB\CW32.LIB|mathwhy ACBP=A9
 0002:000193C4 0000001C C=DATA    S=_DATA    G=DGROUP   M=C:\BORLAND\BCC55\LIB\CW32.LIB|pow ACBP=A9
 0002:000193E0 00000014 C=DATA    S=_DATA    G=DGROUP   M=C:\BORLAND\BCC55\LIB\CW32.LIB|realcvt ACBP=A9
 0002:000193F4 00000028 C=DATA    S=_DATA    G=DGROUP   M=C:\BORLAND\BCC55\LIB\CW32.LIB|realcvtw ACBP=A9
 0002:0001941C 00000028 C=DATA    S=_DATA    G=DGROUP   M=C:\BORLAND\BCC55\LIB\CW32.LIB|scantod ACBP=A9
 0002:00019444 00000028 C=DATA    S=_DATA    G=DGROUP   M=C:\BORLAND\BCC55\LIB\CW32.LIB|scanwtod ACBP=A9
 0002:0001946C 00000010 C=DATA    S=_DATA    G=DGROUP   M=C:\BORLAND\BCC55\LIB\CW32.LIB|sqrt ACBP=A9
 0002:0001947C 00000048 C=DATA    S=_DATA    G=DGROUP   M=C:\BORLAND\BCC55\LIB\CW32.LIB|mbctype ACBP=A9
 0002:000194C4 00000024 C=DATA    S=_DATA    G=DGROUP   M=C:\BORLAND\BCC55\LIB\CW32.LIB|assert ACBP=A9
 0002:000194E8 00000024 C=DATA    S=_DATA    G=DGROUP   M=C:\BORLAND\BCC55\LIB\CW32.LIB|ermsghlp ACBP=A9
 0002:0001950C 00000004 C=DATA    S=_DATA    G=DGROUP   M=C:\BORLAND\BCC55\LIB\CW32.LIB|errno ACBP=A9
 0002:00019510 00000010 C=DATA    S=_DATA    G=DGROUP   M=C:\BORLAND\BCC55\LIB\CW32.LIB|errormsg ACBP=A9
 0002:00019520 00000028 C=DATA    S=_DATA    G=DGROUP   M=C:\BORLAND\BCC55\LIB\CW32.LIB|platform ACBP=A9
 0002:00019548 00000020 C=DATA    S=_DATA    G=DGROUP   M=C:\BORLAND\BCC55\LIB\CW32.LIB|abort ACBP=A9
 0002:00019568 00000004 C=DATA    S=_DATA    G=DGROUP   M=C:\BORLAND\BCC55\LIB\CW32.LIB|patexit ACBP=A9
 0002:0001956C 0000000C C=DATA    S=_DATA    G=DGROUP   M=C:\BORLAND\BCC55\LIB\CW32.LIB|exit ACBP=A9
 0002:00019578 00000008 C=DATA    S=_DATA    G=DGROUP   M=C:\BORLAND\BCC55\LIB\CW32.LIB|saptr ACBP=A9
 0002:00019580 00000008 C=DATA    S=_DATA    G=DGROUP   M=C:\BORLAND\BCC55\LIB\CW32.LIB|wsaptr ACBP=A9
 0002:00019588 00000054 C=DATA    S=_DATA    G=DGROUP   M=C:\BORLAND\BCC55\LIB\CW32.LIB|setargv ACBP=A9
 0002:000195DC 00000028 C=DATA    S=_DATA    G=DGROUP   M=C:\BORLAND\BCC55\LIB\CW32.LIB|hsargv ACBP=A9
 0002:00019604 00000024 C=DATA    S=_DATA    G=DGROUP   M=C:\BORLAND\BCC55\LIB\CW32.LIB|whsargv ACBP=A9
 0002:00019628 00000004 C=DATA    S=_DATA    G=DGROUP   M=C:\BORLAND\BCC55\LIB\CW32.LIB|srchenv ACBP=A9
 0002:0001962C 00000004 C=DATA    S=_DATA    G=DGROUP   M=C:\BORLAND\BCC55\LIB\CW32.LIB|srchstr ACBP=A9
 0002:00019630 00000004 C=DATA    S=_DATA    G=DGROUP   M=C:\BORLAND\BCC55\LIB\CW32.LIB|wildptr ACBP=A9
 0002:00019634 00000004 C=DATA    S=_DATA    G=DGROUP   M=C:\BORLAND\BCC55\LIB\CW32.LIB|wwildptr ACBP=A9
 0002:00019638 00000020 C=DATA    S=_DATA    G=DGROUP   M=C:\BORLAND\BCC55\LIB\CW32.LIB|setargv0 ACBP=A9
 0002:00019658 00000030 C=DATA    S=_DATA    G=DGROUP   M=C:\BORLAND\BCC55\LIB\CW32.LIB|loadprog ACBP=A9
 0002:00019688 00000054 C=DATA    S=_DATA    G=DGROUP   M=C:\BORLAND\BCC55\LIB\CW32.LIB|setenvp ACBP=A9
 0002:000196DC 0000005E C=DATA    S=_DATA    G=DGROUP   M=C:\BORLAND\BCC55\LIB\CW32.LIB|signal ACBP=A9
 0002:0001973C 00000004 C=DATA    S=_DATA    G=DGROUP   M=C:\BORLAND\BCC55\LIB\CW32.LIB|_cwait ACBP=A9
 0002:00019740 00000004 C=DATA    S=_DATA    G=DGROUP   M=C:\BORLAND\BCC55\LIB\CW32.LIB|globals ACBP=A9
 0002:00019744 00000004 C=DATA    S=_DATA    G=DGROUP   M=C:\BORLAND\BCC55\LIB\CW32.LIB|initexit ACBP=A9
 0002:00019748 000001C4 C=DATA    S=_DATA    G=DGROUP   M=C:\BORLAND\BCC55\LIB\CW32.LIB|timedata ACBP=A9
 0002:0001990C 00000008 C=DATA    S=_DATA    G=DGROUP   M=C:\BORLAND\BCC55\LIB\CW32.LIB|tzdata ACBP=A9
 0002:00019914 00000010 C=DATA    S=_DATA    G=DGROUP   M=C:\BORLAND\BCC55\LIB\CW32.LIB|tzset ACBP=A9
 0002:00019924 00000004 C=DATA    S=_DATA    G=DGROUP   M=C:\BORLAND\BCC55\LIB\CW32.LIB|clock ACBP=A9
 0002:00019928 0000088C C=DATA    S=_DATA    G=DGROUP   M=C:\BORLAND\BCC55\LIB\CW32.LIB|xx ACBP=A9
 0003:00000000 00000498 C=BSS     S=_BSS     G=DGROUP   M=C:\XHARBOUR\LIB\OPTCON.LIB|hvm ACBP=A9
 0003:00000498 00000201 C=BSS     S=_BSS     G=DGROUP   M=C:\XHARBOUR\LIB\OPTCON.LIB|fm ACBP=A9
 0003:0000069C 000015E0 C=BSS     S=_BSS     G=DGROUP   M=C:\BORLAND\BCC55\LIB\BCC640.LIB|files2 ACBP=A9
 0003:00001C7C 00000008 C=BSS     S=_BSS     G=DGROUP   M=C:\XHARBOUR\LIB\VM.LIB|errorapi ACBP=A9
 0003:00001C84 00000048 C=BSS     S=_BSS     G=DGROUP   M=C:\XHARBOUR\LIB\VM.LIB|estack ACBP=A9
 0003:00001CCC 00000018 C=BSS     S=_BSS     G=DGROUP   M=C:\XHARBOUR\LIB\VM.LIB|extend ACBP=A9
 0003:00001CE4 00000189 C=BSS     S=_BSS     G=DGROUP   M=C:\XHARBOUR\LIB\VM.LIB|hbi18n ACBP=A9
 0003:00001E70 00000100 C=BSS     S=_BSS     G=DGROUP   M=C:\XHARBOUR\LIB\RTL.LIB|cdpapi ACBP=A9
 0003:00001F70 00000018 C=BSS     S=_BSS     G=DGROUP   M=C:\XHARBOUR\LIB\RTL.LIB|console ACBP=A9
 0003:00001F88 00000100 C=BSS     S=_BSS     G=DGROUP   M=C:\XHARBOUR\LIB\RTL.LIB|filesys ACBP=A9
 0003:00002088 00000018 C=BSS     S=_BSS     G=DGROUP   M=C:\XHARBOUR\LIB\RTL.LIB|gtapi ACBP=A9
 0003:000020A0 00000018 C=BSS     S=_BSS     G=DGROUP   M=C:\XHARBOUR\LIB\RTL.LIB|inkey ACBP=A9
 0003:000020B8 00000100 C=BSS     S=_BSS     G=DGROUP   M=C:\XHARBOUR\LIB\RTL.LIB|langapi ACBP=A9
 0003:000021B8 00000444 C=BSS     S=_BSS     G=DGROUP   M=C:\XHARBOUR\LIB\RTL.LIB|set ACBP=A9
 0003:000025FC 00000004 C=BSS     S=_BSS     G=DGROUP   M=C:\XHARBOUR\LIB\RTL.LIB|setkey ACBP=A9
 0003:00002600 00000004 C=BSS     S=_BSS     G=DGROUP   M=C:\XHARBOUR\LIB\RTL.LIB|xsavescr ACBP=A9
 0003:00002604 0000017C C=BSS     S=_BSS     G=DGROUP   M=C:\XHARBOUR\LIB\RDD.LIB|dbf1 ACBP=A9
 0003:00002780 0000017C C=BSS     S=_BSS     G=DGROUP   M=C:\XHARBOUR\LIB\RDD.LIB|delim1 ACBP=A9
 0003:000028FC 0000017C C=BSS     S=_BSS     G=DGROUP   M=C:\XHARBOUR\LIB\RDD.LIB|sdf1 ACBP=A9
 0003:00002A78 00000040 C=BSS     S=_BSS     G=DGROUP   M=C:\XHARBOUR\LIB\MACRO.LIB|macroy ACBP=A9
 0003:00002AB8 00008ED4 C=BSS     S=_BSS     G=DGROUP   M=C:\XHARBOUR\LIB\MACRO.LIB|macroslx ACBP=A9
 0003:0000B98C 0000017C C=BSS     S=_BSS     G=DGROUP   M=C:\XHARBOUR\LIB\DBFNTX.LIB|dbfntx1 ACBP=A9
 0003:0000BB08 0000017C C=BSS     S=_BSS     G=DGROUP   M=C:\XHARBOUR\LIB\DBFDBT.LIB|dbfdbt1 ACBP=A9
 0003:0000BC84 00000A60 C=BSS     S=_BSS     G=DGROUP   M=C:\XHARBOUR\LIB\GTWIN.LIB|gtwin ACBP=A9
 0003:0000C6E4 00000008 C=BSS     S=_BSS     G=DGROUP   M=C:\XHARBOUR\LIB\GTWIN.LIB|mousewin ACBP=A9
 0003:0000C6EC 00000018 C=BSS     S=_BSS     G=DGROUP   M=C:\BORLAND\BCC55\LIB\CW32.LIB|hrdir_b ACBP=A9
 0003:0000C704 00000004 C=BSS     S=_BSS     G=DGROUP   M=C:\BORLAND\BCC55\LIB\CW32.LIB|strtok ACBP=A9
 0003:0000C708 00000410 C=BSS     S=_BSS     G=DGROUP   M=C:\BORLAND\BCC55\LIB\CW32.LIB|xxtype ACBP=A9
 0003:0000CB18 00000008 C=BSS     S=_BSS     G=DGROUP   M=C:\BORLAND\BCC55\LIB\CW32.LIB|xxv ACBP=A9
 0003:0000CB20 00000008 C=BSS     S=_BSS     G=DGROUP   M=C:\BORLAND\BCC55\LIB\CW32.LIB|except ACBP=A9
 0003:0000CB28 00000004 C=BSS     S=_BSS     G=DGROUP   M=C:\BORLAND\BCC55\LIB\CW32.LIB|ioerror ACBP=A9
 0003:0000CB2C 0000000F C=BSS     S=_BSS     G=DGROUP   M=C:\BORLAND\BCC55\LIB\CW32.LIB|mkname ACBP=A9
 0003:0000CB3C 00000108 C=BSS     S=_BSS     G=DGROUP   M=C:\BORLAND\BCC55\LIB\CW32.LIB|mbctype ACBP=A9
 0003:0000CC44 00000100 C=BSS     S=_BSS     G=DGROUP   M=C:\BORLAND\BCC55\LIB\CW32.LIB|assert ACBP=A9
 0003:0000CD44 00000019 C=BSS     S=_BSS     G=DGROUP   M=C:\BORLAND\BCC55\LIB\CW32.LIB|ermsghlp ACBP=A9
 0003:0000CD60 00000004 C=BSS     S=_BSS     G=DGROUP   M=C:\BORLAND\BCC55\LIB\CW32.LIB|platform ACBP=A9
 0003:0000CD64 00000008 C=BSS     S=_BSS     G=DGROUP   M=C:\BORLAND\BCC55\LIB\CW32.LIB|qsort ACBP=A9
 0003:0000CD6C 0000000C C=BSS     S=_BSS     G=DGROUP   M=C:\BORLAND\BCC55\LIB\CW32.LIB|setargv ACBP=A9
 0003:0000CD78 00000004 C=BSS     S=_BSS     G=DGROUP   M=C:\BORLAND\BCC55\LIB\CW32.LIB|hsargv ACBP=A9
 0003:0000CD7C 00000004 C=BSS     S=_BSS     G=DGROUP   M=C:\BORLAND\BCC55\LIB\CW32.LIB|whsargv ACBP=A9
 0003:0000CD80 00000010 C=BSS     S=_BSS     G=DGROUP   M=C:\BORLAND\BCC55\LIB\CW32.LIB|setenvp ACBP=A9
 0003:0000CD90 00000200 C=BSS     S=_BSS     G=DGROUP   M=C:\BORLAND\BCC55\LIB\CW32.LIB|_cwait ACBP=A9
 0003:0000CF90 00000040 C=BSS     S=_BSS     G=DGROUP   M=C:\BORLAND\BCC55\LIB\CW32.LIB|globals ACBP=A9
 0003:0000CFD0 00000024 C=BSS     S=_BSS     G=DGROUP   M=C:\BORLAND\BCC55\LIB\CW32.LIB|gmtime ACBP=A9
 0003:0000CFF4 00000008 C=BSS     S=_BSS     G=DGROUP   M=C:\BORLAND\BCC55\LIB\CW32.LIB|tzset ACBP=A9
 0003:0000CFFC 00000010 C=BSS     S=_BSS     G=DGROUP   M=C:\BORLAND\BCC55\LIB\CW32.LIB|xx ACBP=A9
 0004:00000000 0000009C C=TLS     S=_TLS     G=DGROUP   M=C:\BORLAND\BCC55\LIB\CW32.LIB|xxv ACBP=A9

  Address         Publics by Name

 0001:00056C94      @$bdele$qpv
 0001:00056CA4      @$bdla$qpv
 0003:0000C704      @B1142_1
 0003:0000C708      @B1192_2
 0003:0000CB18      @B1196_2
 0003:0000CB20      @B1202_2
 0003:00001C7C      @B125_2
 0003:00001C84      @B127_2
 0003:00001CCC      @B133_2
 0003:00001CE4      @B138_2
 0003:0000CB28      @B1463_2
 0003:0000CB2C      @B1487_2
 0003:00001E70      @B189_2
 0003:00001F70      @B195_2
 0003:0000CB3C      @B2090_2
 0003:0000CC44      @B2226_2
 0003:0000CD44      @B2242_2
 0003:0000CD60      @B2254_2
 0003:0000CD64      @B2258_1
 0003:00001F88      @B225_2
 0003:00000000      @B22_2
 0003:0000CD6C      @B2335_2
 0003:0000CD78      @B2337_2
 0003:0000CD7C      @B2339_2
 0003:00002088      @B239_2
 0003:0000CD80      @B2410_2
 0003:0000CD90      @B2422_2
 0003:0000CF90      @B2432_1
 0003:0000CFD0      @B2457_1
 0003:0000CFF4      @B2471_2
 0003:0000CFFC      @B2527_2
 0003:00000498      @B26_1
 0003:000020A0      @B279_2
 0003:000020B8      @B285_2
 0003:0000069C      @B32_1
 0003:000021B8      @B363_2
 0003:000025FC      @B369_1
 0003:00002600      @B429_2
 0003:00002604      @B565_2
 0003:00002780      @B569_2
 0003:000028FC      @B571_2
 0003:00002A78      @B597_2
 0003:00002AB8      @B605_2
 0003:0000B98C      @B617_2
 0003:0000BB08      @B629_2
 0003:0000BC84      @B653_2
 0003:0000C6E4      @B655_1
 0003:0000C6EC      @B879_2
 0001:0000D5B8      @C104_0
 0001:00057BC4      @C1060_0
 0001:00057BE4      @C1064_0
 0001:00057C08      @C1068_0
 0001:0000F230      @C106_0
 0001:00057C54      @C1070_0
 0001:00057CE0      @C1072_0
 0001:00057CF8      @C1086_0
 0001:00057D34      @C1088_0
 0001:00012000      @C108_0
 0001:00057D88      @C1094_0
 0001:00057DE4      @C1096_0
 0001:00057E54      @C1098_0
 0001:000127B4      @C110_0
 0001:00057E7C      @C1112_0
 0001:00057EE8      @C1118_0
 0001:00057F1C      @C1124_0
 0001:00057F6C      @C1130_0
 0001:00057F98      @C1132_0
 0001:000127CC      @C113_0
 0001:00057FC4      @C1140_0
 0001:00058018      @C1142_0
 0001:00058080      @C1144_0
 0001:000580B8      @C1146_0
 0001:000580D0      @C1148_0
 0001:00012C48      @C115_0
 0001:00058110      @C1188_0
 0001:00058180      @C1192_0
 0001:000582D7      @C1192_3
 0001:00058974      @C1196_0
 0001:00058974      @C1196_4
 0001:00058AC0      @C1198_0
 0001:00058ACC      @C1202_0
 0001:00058C08      @C1202_3
 0001:00058C20      @C1202_4
 0001:00058C48      @C1206_0
 0001:00058C90      @C1208_0
 0001:00058CB4      @C1212_0
 0001:00058CF0      @C1214_0
 0001:00058D50      @C1216_0
 0001:00058D64      @C1218_0
 0001:00058E54      @C1220_0
 0001:00058EDC      @C1222_0
 0001:00059000      @C1224_0
 0001:00059048      @C1226_0
 0001:000590C0      @C1228_0
 0001:000592BC      @C1230_0
 0001:00059458      @C1232_0
 0001:00059654      @C1236_0
 0001:00059770      @C1238_0
 0001:000130AC      @C123_0
 0001:00059784      @C1256_0
 0001:00013744      @C125_0
 0001:000597BC      @C1274_0
 0001:00014B5C      @C127_0
 0001:00059890      @C1280_0
 0001:00015238      @C129_0
 0001:000598F4      @C1308_0
 0001:0005992C      @C1312_0
 0001:00059990      @C1314_0
 0001:00059998      @C1316_0
 0001:00059A18      @C1322_0
 0001:00059AB4      @C1326_0
 0001:00059ABC      @C1330_0
 0001:00015D74      @C133_0
 0001:00059AC4      @C1363_0
 0001:00059ACC      @C1365_0
 0001:00059AD4      @C1367_0
 0001:00059ADC      @C1369_0
 0001:000173E0      @C136_0
 0001:00059B6C      @C1377_0
 0001:00017A18      @C138_0
 0001:00059BEC      @C1397_0
 0001:00059C48      @C1401_0
 0001:00059C6C      @C1406_0
 0001:00059E4C      @C1408_0
 0001:00059E70      @C1414_0
 0001:00059F4C      @C1432_0
 0001:00018A0C      @C143_0
 0001:0005A08C      @C1440_0
 0001:0005A160      @C1448_0
 0001:0005A2A0      @C1463_0
 0001:0005A318      @C1467_0
 0001:0005A320      @C1473_0
 0001:0005A3A0      @C1477_0
 0001:00018A14      @C147_0
 0001:0005A4B0      @C1481_0
 0001:0005A4B8      @C1487_0
 0001:0005A54C      @C1491_0
 0001:0005A55C      @C1497_0
 0001:0001A0FC      @C149_0
 0001:0005A580      @C1507_0
 0001:0001AD88      @C151_0
 0001:0005A588      @C1539_0
 0001:0005A5F4      @C1541_0
 0001:0005A644      @C1551_0
 0001:0001C480      @C155_0
 0001:0005A6BC      @C1563_0
 0001:0005A778      @C1563_1
 0001:0005A7D4      @C1571_0
 0001:0005A7EC      @C1579_0
 0001:0005A808      @C1583_0
 0001:0005A82C      @C1591_0
 0001:0001C4A4      @C159_0
 0001:0001E2D0      @C163_0
 0001:0005B218      @C1647_0
 0001:0001E30C      @C165_0
 0001:0005B220      @C1667_0
 0001:0005B250      @C1669_0
 0001:0005B278      @C1683_0
 0001:0005B2CC      @C1690_0
 0001:0005B3D0      @C1692_0
 0001:0005B4D4      @C1694_0
 0001:0005B518      @C1696_0
 0001:0005B570      @C1734_0
 0001:0005B5C4      @C1736_0
 0001:0005B618      @C1738_0
 0001:0001E7C0      @C173_0
 0001:0001E7C0      @C173_2
 0001:0005B66C      @C1740_0
 0001:0005B6C0      @C1742_0
 0001:0005BB90      @C1792_0
 0001:0005BD90      @C1806_0
 0001:0005BDB0      @C1816_0
 0001:0001E850      @C181_0
 0001:0005BDF8      @C1826_0
 0001:0005BEA8      @C1832_0
 0001:0005C030      @C1851_0
 0001:0005C044      @C1855_0
 0001:0005C0BC      @C1863_0
 0001:0005C0D8      @C1867_0
 0001:0001E94C      @C187_0
 0001:0005C0EC      @C1881_0
 0001:0005C11C      @C1883_0
 0001:0005C134      @C1887_0
 0001:0005C14C      @C1889_0
 0001:0005C164      @C1897_0
 0001:0001EAB8      @C189_0
 0001:0001F490      @C189_3
 0001:0005C1D0      @C1905_0
 0001:0005C2A0      @C1907_0
 0001:0005C2E8      @C1911_0
 0001:0001F49C      @C191_0
 0001:0005C2F8      @C1921_0
 0001:0005C314      @C1925_0
 0001:0005C364      @C1929_0
 0001:0005C37C      @C1935_0
 0001:0005C3A4      @C1937_0
 0001:0005C3D4      @C1939_0
 0001:0005C3F8      @C1941_0
 0001:0005C40C      @C1957_0
 0001:0001F564      @C195_0
 0001:0005C4C0      @C1967_0
 0001:0005C5D8      @C1969_0
 0001:0005C648      @C1971_0
 0001:0005C6B8      @C1977_0
 0001:0005C748      @C1985_0
 0001:0005C7C0      @C1991_0
 0001:0005C7F0      @C1993_0
 0001:00000000      @C1_0
 0001:0005C808      @C2007_0
 0001:0005C9E4      @C2015_0
 0001:0005CA0C      @C2017_0
 0001:0001FF94      @C201_0
 0001:0005CA3C      @C2021_0
 0001:0005CD38      @C2023_0
 0001:0005D06C      @C2028_0
 0001:0005D098      @C2030_0
 0001:0005D57C      @C2032_0
 0001:00020760      @C203_0
 0001:0005DA5C      @C2042_0
 0001:0005DA98      @C2048_0
 0001:00020D88      @C205_0
 0001:0005DB5C      @C2076_0
 0001:0005DE30      @C2078_0
 0001:0005E124      @C2090_0
 0001:0005E250      @C2090_3
 0001:0005E260      @C2092_0
 0001:0005E2A0      @C2094_0
 0001:0005E2BC      @C2112_0
 0001:0005E2D8      @C2124_0
 0001:0005E328      @C2130_0
 0001:0005E380      @C2132_0
 0001:0005E41C      @C2150_0
 0001:0005E470      @C2152_0
 0001:0005E530      @C2174_0
 0001:00020DC8      @C219_0
 0001:00020FE8      @C221_0
 0001:0005E588      @C2226_0
 0001:00021044      @C223_0
 0001:0005E630      @C2242_0
 0001:0005E6E8      @C2246_0
 0001:0005E884      @C2254_0
 0001:0005E884      @C2254_3
 0001:0005E910      @C2258_0
 0001:00021094      @C225_0
 0001:0005EB48      @C2269_0
 0001:0005EB50      @C2273_0
 0001:000003CC      @C22_0
 0001:0005EB74      @C2311_0
 0001:0005EC1C      @C2313_0
 0001:0005EC74      @C2319_0
 0001:0005EC90      @C2321_0
 0001:0005ECA4      @C2323_0
 0001:0005ECB8      @C2329_0
 0001:0005ECE0      @C2335_0
 0001:0005ECE0      @C2335_3
 0001:0005ED68      @C2335_4
 0001:0005EE4C      @C2337_0
 0001:0005F034      @C2339_0
 0001:00021F5C      @C233_0
 0001:0005F25C      @C2367_0
 0001:0005F27C      @C2375_0
 0001:0002203C      @C237_0
 0001:0005F2AC      @C2383_0
 0001:0005F3A4      @C2396_0
 0001:0005F3A4      @C2396_2
 0001:0005F3DC      @C2396_3
 0001:00022078      @C239_0
 0001:0005F3EC      @C2402_0
 0001:0005FA28      @C2410_0
 0001:0005FBA8      @C2410_3
 0001:0005FA28      @C2410_4
 0001:0005FBC8      @C2414_0
 0001:0005FEC0      @C2422_0
 0001:00060060      @C2422_3
 0001:0006006C      @C2433_0
 0001:000601C4      @C2435_0
 0001:00060368      @C2449_0
 0001:000603B8      @C2457_0
 0001:00060564      @C2467_0
 0001:00060808      @C2469_0
 0001:00060808      @C2469_2
 0001:00060810      @C2471_0
 0001:000609D8      @C2473_0
 0001:000609E0      @C2477_0
 0001:000609EC      @C2477_2
 0001:000609F8      @C2483_0
 0001:00008FA4      @C24_0
 0001:00060A98      @C2527_0
 0001:00060A98      @C2527_3
 0001:00023324      @C257_0
 0001:0000CF44      @C26_0
 0001:00023B48      @C277_0
 0001:00023E2C      @C279_0
 0001:00025B2C      @C285_0
 0001:00025DB4      @C287_0
 0001:00025E74      @C289_0
 0001:00025EF4      @C293_0
 0001:000268CC      @C295_0
 0001:000268FC      @C297_0
 0001:00000150      @C2_0
 0001:00000150      @C2_2
 0001:00026A9C      @C301_0
 0001:0000D2CC      @C30_0
 0001:00026FC4      @C313_0
 0001:000273BC      @C331_0
 0001:000274DC      @C335_0
 0001:000275C4      @C337_0
 0001:00028078      @C345_0
 0001:0002DAD8      @C347_0
 0001:0002DC18      @C351_0
 0001:0002DEB4      @C357_0
 0001:0002DFD8      @C361_0
 0001:0002E104      @C363_0
 0001:00030920      @C365_0
 0001:00030A30      @C367_0
 0001:00030A94      @C369_0
 0001:000310A0      @C371_0
 0001:0003112C      @C379_0
 0001:000311B4      @C381_0
 0001:000313AC      @C383_0
 0001:000315B0      @C385_0
 0001:00031920      @C389_0
 0001:00031A04      @C391_0
 0001:00031B14      @C395_0
 0001:00031E3C      @C397_0
 0001:000001D0      @C3_0
 0001:000001D0      @C3_2
 0001:00032014      @C401_0
 0001:000321A0      @C407_0
 0001:00032B70      @C409_0
 0001:00032CB0      @C411_0
 0001:00033FB4      @C413_0
 0001:000341BC      @C415_0
 0001:0003422C      @C417_0
 0001:000343C8      @C421_0
 0001:0003467C      @C427_0
 0001:000346FC      @C429_0
 0001:000347DC      @C435_0
 0001:000347DC      @C435_2
 0001:0003483C      @C449_0
 0001:0003483C      @C449_2
 0001:000348B4      @C465_0
 0001:000348B4      @C465_2
 0001:0000D5A8      @C46_0
 0001:0000D5AC      @C46_2
 0001:00034974      @C489_0
 0001:00034974      @C489_2
 0001:00034B54      @C517_0
 0001:00034B54      @C517_2
 0001:00034D34      @C521_0
 0001:00034D34      @C521_2
 0001:00034DAC      @C535_0
 0001:00034DAC      @C535_2
 0001:00034E84      @C539_0
 0001:00034E84      @C539_2
 0001:00034EB4      @C561_0
 0001:0003B400      @C563_0
 0001:0003C2F0      @C565_0
 0001:0003C2F0      @C565_3
 0001:0003F69C      @C569_0
 0001:0003F69C      @C569_3
 0001:0003F724      @C571_0
 0001:0003F724      @C571_3
 0001:0003F7AC      @C573_0
 0001:0003F7AC      @C573_2
 0001:0003F7F4      @C575_0
 0001:0003F7F4      @C575_2
 0001:0003F944      @C583_0
 0001:0003FFB8      @C589_0
 0001:0003FFB8      @C589_2
 0001:00040000      @C591_0
 0001:00040000      @C591_2
 0001:00040108      @C593_0
 0001:00040108      @C593_2
 0001:00040150      @C595_0
 0001:00040150      @C595_2
 0001:00040198      @C597_0
 0001:00043844      @C599_0
 0001:00043B54      @C601_0
 0001:00048AA8      @C603_0
 0001:000491E4      @C605_0
 0001:0004A9FC      @C617_0
 0001:0004A9FC      @C617_3
 0001:00051B98      @C619_0
 0001:00051B98      @C619_2
 0001:00051BE0      @C629_0
 0001:00051C5C      @C629_3
 0001:00052608      @C631_0
 0001:00052608      @C631_2
 0001:00052650      @C635_0
 0001:00052984      @C637_0
 0001:000529B8      @C641_0
 0001:00052B0C      @C643_0
 0001:00052D24      @C645_0
 0001:000534F0      @C647_0
 0001:00053C28      @C649_0
 0001:00054C64      @C651_0
 0001:00054CC4      @C653_0
 0001:00056BD0      @C655_0
 0001:00056C68      @C847_0
 0001:00056C94      @C849_0
 0001:00056CA4      @C851_0
 0001:00056CB4      @C877_0
 0001:00056DC8      @C879_0
 0001:00056E68      @C885_0
 0001:00056E88      @C887_0
 0001:00056EA0      @C889_0
 0001:00056F3C      @C889_2
 0001:00056F58      @C891_0
 0001:00056F5C      @C895_0
 0001:00057928      @C915_0
 0001:00057BBC      @C917_0
 0001:00057BC0      @C921_0
 0002:0000B108      @D104_1
 0002:0000B3C4      @D106_1
 0002:0000B478      @D113_1
 0002:00017FF4      @D1190_0
 0002:00017FF8      @D1192_1
 0002:00018318      @D1194_1
 0002:00018354      @D1196_1
 0002:00018438      @D1202_1
 0002:0001844C      @D1218_1
 0002:00018458      @D1238_1
 0002:0000B4EC      @D123_1
 0002:0000B4FC      @D125_1
 0002:0000B6C8      @D127_1
 0002:0001845C      @D1292_1
 0002:0000B7D8      @D129_1
 0002:00018460      @D1318_0
 0002:0000B7F4      @D133_1
 0002:0000B7F8      @D136_1
 0002:0000B810      @D138_1
 0002:00018464      @D1399_0
 0002:00018468      @D1401_1
 0002:0001846C      @D1463_1
 0002:0000B8A8      @D147_1
 0002:00018598      @D1487_1
 0002:000185A4      @D1495_1
 0002:0000B924      @D149_1
 0002:0000B948      @D151_1
 0002:00018A20      @D1591_1
 0002:0000B96C      @D159_1
 0002:0000B9C8      @D165_1
 0002:00018A98      @D1671_0
 0002:00018C9C      @D1677_0
 0002:00018D9C      @D1681_0
 0002:00018E9C      @D1700_0
 0002:0000BA90      @D173_1
 0002:0000BBF0      @D181_1
 0002:000190FC      @D1826_1
 0002:0001910C      @D1832_1
 0002:000191CC      @D1887_1
 0002:00019234      @D1889_1
 0002:0001929C      @D1891_0
 0002:000192A0      @D1897_1
 0002:0000BBF4      @D189_1
 0002:000192AC      @D1905_1
 0002:000192C0      @D1907_1
 0002:0000BC38      @D191_1
 0002:000192D8      @D1945_0
 0002:00019354      @D1955_0
 0002:0000BC40      @D195_1
 0002:0001935C      @D1969_1
 0002:00019368      @D1971_1
 0002:00019378      @D1993_1
 0002:00019380      @D1997_0
 0002:00000138      @D1_1
 0002:000193C4      @D2007_1
 0002:0000BC58      @D201_1
 0002:000193E0      @D2021_1
 0002:000193F4      @D2023_1
 0002:0001941C      @D2030_1
 0002:00019444      @D2032_1
 0002:0000BC80      @D203_1
 0002:0001946C      @D2042_1
 0002:0000BCB8      @D205_1
 0002:0001947C      @D2090_1
 0002:000194C4      @D2226_1
 0002:000194E8      @D2242_1
 0002:0001950C      @D2244_1
 0002:00019510      @D2246_1
 0002:00019520      @D2254_1
 0002:0000BCC4      @D225_1
 0002:00019548      @D2273_1
 0002:00019568      @D2275_0
 0002:00004D80      @D22_1
 0002:0001956C      @D2311_1
 0002:00019578      @D2331_0
 0002:00019580      @D2333_0
 0002:00019588      @D2335_1
 0002:000195DC      @D2337_1
 0002:00019604      @D2339_1
 0002:00019628      @D2375_1
 0002:0001962C      @D2383_1
 0002:00019630      @D2392_0
 0002:00019634      @D2394_0
 0002:00019638      @D2396_1
 0002:0000BCD8      @D239_1
 0002:00019658      @D2402_1
 0002:00019688      @D2410_1
 0002:000196DC      @D2414_1
 0002:0001973C      @D2422_1
 0002:00019740      @D2432_0
 0002:00019744      @D2433_1
 0002:00019748      @D2463_0
 0002:0001990C      @D2469_1
 0002:00019914      @D2471_1
 0002:00019924      @D2477_1
 0002:00005878      @D24_1
 0002:00019928      @D2527_1
 0002:0000BCFC      @D257_1
 0002:0000BD1C      @D277_1
 0002:0000BD2C      @D279_1
 0002:0000BD34      @D285_1
 0002:0000BD94      @D287_1
 0002:0000BD9C      @D289_1
 0002:00005AFC      @D28_0
 0002:0000BDA0      @D293_1
 0002:0000BEF4      @D297_1
 0002:000001DC      @D2_1
 0002:0000BEF8      @D301_1
 0002:0000BF00      @D313_1
 0002:00009C9C      @D32_0
 0002:0000BF10      @D331_1
 0002:0000BF14      @D335_1
 0002:0000BF18      @D337_1
 0002:0000BFF8      @D345_1
 0002:0000CD78      @D347_1
 0002:0000CD84      @D351_1
 0002:0000CD90      @D363_1
 0002:0000CE18      @D379_1
 0002:0000CE20      @D383_1
 0002:0000CE48      @D385_1
 0002:0000CE54      @D395_1
 0002:0000CE60      @D397_1
 0002:000003E0      @D3_1
 0002:0000CE6C      @D401_1
 0002:0000CE74      @D407_1
 0002:0000CEC8      @D409_1
 0002:0000CEF4      @D411_1
 0002:0000CF38      @D413_1
 0002:0000CF48      @D415_1
 0002:0000CF50      @D417_1
 0002:0000CF54      @D427_1
 0002:0000CF5C      @D429_1
 0002:0000CF60      @D435_1
 0002:0000DCE8      @D449_1
 0002:0000E930      @D465_1
 0002:0000A790      @D46_1
 0002:00010058      @D489_1
 0002:00010F24      @D517_1
 0002:000120D8      @D521_1
 0002:00012630      @D535_1
 0002:00012DE8      @D539_1
 0002:00013114      @D561_1
 0002:000134CC      @D563_1
 0002:0001351C      @D565_1
 0002:00013704      @D569_1
 0002:000138D0      @D571_1
 0002:00013A98      @D573_1
 0002:00013B20      @D575_1
 0002:00013ECC      @D589_1
 0002:00013F60      @D591_1
 0002:00014294      @D593_1
 0002:0001433C      @D595_1
 0002:000143C4      @D597_1
 0002:00016458      @D599_1
 0002:00016490      @D601_1
 0002:000165C0      @D605_1
 0002:0001702C      @D617_1
 0002:00017310      @D619_1
 0002:000173B4      @D629_1
 0002:00017594      @D631_1
 0002:00017638      @D635_1
 0002:00017640      @D643_1
 0002:000176F4      @D645_1
 0002:00017AF8      @D647_1
 0002:00017C54      @D651_1
 0002:00017EA8      @D653_1
 0002:00017EF8      @D877_1
 0002:00017EFC      @D879_1
 0002:00017F94      @D889_1
 0002:00017FB4      @D895_1
 0001:00000140      @Sysinit@@GetTls$qqrv
 0004:00000000      @T1196_3
 0002:00018404      @_$CHNC$@__call_terminate$qv
 0002:00018320      @_$CHNC$@std@terminate$qv
 0002:00018424      @_$ECTOC$@__call_terminate$qv
 0002:00018340      @_$ECTOC$@std@terminate$qv
 0001:000612C4      @_CatchCleanup$qv
 0001:000588D4      @_InitTermAndUnexPtrs$qv
 0001:0006111D      @_ReThrowException$quipuc
 0001:000610E8      @_ThrowExceptionLDTC$qpvt1t1t1uiuiuipuct1
 0001:00058149      @__ExitExceptBlock
 0001:00058110      @__InitExceptBlockLDTC
 0001:00058858      @__adjustClassAdr$qpvp4tpidt2
 0001:00058748      @__isCompatTypeID$qp4tpidt1ipp4tpid
 0001:0005866C      @__isSameTypeID$qp4tpidt1
 0001:00058634      @__typeIDname$qp4tpid
 0001:0005C37C      @_ftol$qv
 0001:00056D20      @_virt_alloc
 0001:00056D48      @_virt_commit
 0001:00056D94      @_virt_decommit
 0001:00056DAC      @_virt_release
 0001:00056CB4      @_virt_reserve
 0001:00058CAB      @invokeHnd$qv
 0001:00058C90      @jump$qv
 0001:000588FC      @std@terminate$qv
 0001:0005894C      @std@unexpected$qv
 0001:00010310      _ArrayToStructure
 0002:00018FAC      _CLOCALE
 0002:00018E9C      _CMonetary
 0002:00018ED0      _CNumeric
 0002:00018EE8      _CTimeDate
 0001:00023370      _GetOldesFile
 0001:00021F30      _GnuErrtoDosErr
 0001:0000F358      _HB_FUN_AADD
 0001:0000034C      _HB_FUN_ABREBASECUPOM
 0001:00000301      _HB_FUN_ABREFILE
 0001:0000FC58      _HB_FUN_ACLONE
 0001:0000FB38      _HB_FUN_ACOPY
 0001:0000F670      _HB_FUN_ADEL
 0001:0000FA18      _HB_FUN_AEVAL
 0001:0003598C      _HB_FUN_AFIELDS
 0001:0000F748      _HB_FUN_AFILL
 0001:0000037E      _HB_FUN_AGUARDA
 0001:0000F56C      _HB_FUN_AINS
 0001:000347F4      _HB_FUN_ALERT
 0001:00035BB0      _HB_FUN_ALIAS
 0001:00034120      _HB_FUN_ALLTRIM
 0001:000002E8      _HB_FUN_ANULACUPOM
 0001:0000F2AC      _HB_FUN_ARRAY
 0001:0001F4F4      _HB_FUN_ASC
 0001:0000F964      _HB_FUN_ASCAN
 0001:0000F488      _HB_FUN_ASIZE
 0001:0001271C      _HB_FUN_ASORT
 0001:0001E850      _HB_FUN_AT
 0001:0000F548      _HB_FUN_ATAIL
 0001:00035EE8      _HB_FUN_BOF
 0001:000127B4      _HB_FUN_BREAK
 0001:00000284      _HB_FUN_CANCELACAIXA
 0001:00000207      _HB_FUN_CANCELARECEBER
 0001:0001F49C      _HB_FUN_CHR
 0001:0001E808      _HB_FUN_CLIPINIT
 0001:0001E7D8      _HB_FUN_CLIPPER520
 0001:0001E7F0      _HB_FUN_CLIPPER530
 0001:00031104      _HB_FUN_COL
 0001:00030980      _HB_FUN_COLORSELECT
 0001:00034854      _HB_FUN_CSTR
 0001:0003486C      _HB_FUN_CSTRTOVAL
 0001:00020760      _HB_FUN_CTOD
 0001:00027A70      _HB_FUN_CURDIR
 0001:00027B48      _HB_FUN_CURDIRX
 0001:00000365      _HB_FUN_DATAEMISSAO
 0001:00020CB4      _HB_FUN_DATE
 0001:00020C1C      _HB_FUN_DAY
 0001:00035F24      _HB_FUN_DBAPPEND
 0001:0003F80C      _HB_FUN_DBCLEARFIL
 0001:00035F94      _HB_FUN_DBCLEARFILTER
 0001:00040048      _HB_FUN_DBCLEARINDEX
 0001:0003F8CC      _HB_FUN_DBCLEARREL
 0001:000398C0      _HB_FUN_DBCLEARRELATION
 0001:00035FC4      _HB_FUN_DBCLOSEALL
 0001:0003F86C      _HB_FUN_DBCLOSEARE
 0001:00035FCC      _HB_FUN_DBCLOSEAREA
 0001:00035FDC      _HB_FUN_DBCOMMIT
 0001:00036008      _HB_FUN_DBCOMMITALL
 0001:000360D8      _HB_FUN_DBCREATE
 0001:00040018      _HB_FUN_DBCREATEINDEX
 0001:000366D4      _HB_FUN_DBDELETE
 0001:0003A40C      _HB_FUN_DBDROP
 0001:00035C30      _HB_FUN_DBEVAL
 0001:0003A49C      _HB_FUN_DBEXISTS
 0001:00035E74      _HB_FUN_DBF
 0001:00052638      _HB_FUN_DBFDBT
 0001:00052620      _HB_FUN_DBFDBTINIT
 0001:00051BE4      _HB_FUN_DBFDBT_GETFUNCTABLE
 0001:0003F8FC      _HB_FUN_DBFIELDINF
 0001:0003A070      _HB_FUN_DBFIELDINFO
 0001:0003A208      _HB_FUN_DBFILEGET
 0001:0003A318      _HB_FUN_DBFILEPUT
 0001:00036700      _HB_FUN_DBFILTER
 0001:00051BC8      _HB_FUN_DBFNTX
 0001:00051BB0      _HB_FUN_DBFNTXINIT
 0001:00051AE4      _HB_FUN_DBFNTX_GETFUNCTABLE
 0001:0003F630      _HB_FUN_DBF_GETFUNCTABLE
 0001:00036760      _HB_FUN_DBGOBOTTOM
 0001:0003678C      _HB_FUN_DBGOTO
 0001:000367F4      _HB_FUN_DBGOTOP
 0001:00039EB0      _HB_FUN_DBINFO
 0001:0003F914      _HB_FUN_DBORDERINF
 0001:00039F5C      _HB_FUN_DBORDERINFO
 0001:00036F34      _HB_FUN_DBRECALL
 0001:0003F92C      _HB_FUN_DBRECORDIN
 0001:0003A14C      _HB_FUN_DBRECORDINFO
 0001:00040060      _HB_FUN_DBREINDEX
 0001:00039838      _HB_FUN_DBRELATION
 0001:00036F60      _HB_FUN_DBRLOCK
 0001:0003F854      _HB_FUN_DBRLOCKLIS
 0001:0003701C      _HB_FUN_DBRLOCKLIST
 0001:00039880      _HB_FUN_DBRSELECT
 0001:0003706C      _HB_FUN_DBRUNLOCK
 0001:000370A8      _HB_FUN_DBSEEK
 0001:0003F89C      _HB_FUN_DBSELECTAR
 0001:000371C0      _HB_FUN_DBSELECTAREA
 0001:0003F824      _HB_FUN_DBSETDRIVE
 0001:000395B4      _HB_FUN_DBSETDRIVER
 0001:0003F8E4      _HB_FUN_DBSETFILTE
 0001:00037344      _HB_FUN_DBSETFILTER
 0001:00040030      _HB_FUN_DBSETINDEX
 0001:00040078      _HB_FUN_DBSETORDER
 0001:0003F83C      _HB_FUN_DBSETRELAT
 0001:000398D8      _HB_FUN_DBSETRELATION
 0001:000373DC      _HB_FUN_DBSKIP
 0001:0003B288      _HB_FUN_DBSKIPPER
 0001:0003742C      _HB_FUN_DBSTRUCT
 0001:00037530      _HB_FUN_DBTABLEEXT
 0001:0003769C      _HB_FUN_DBUNLOCK
 0001:0003F8B4      _HB_FUN_DBUNLOCKAL
 0001:000376D0      _HB_FUN_DBUNLOCKALL
 0001:00037704      _HB_FUN_DBUSEAREA
 0001:0003AFAC      _HB_FUN_DBUSEAREAD
 0001:00037A60      _HB_FUN_DELETED
 0001:0003F6B8      _HB_FUN_DELIM_GETFUNCTABLE
 0001:0001FCC4      _HB_FUN_DEVOUT
 0001:0001FC48      _HB_FUN_DEVPOS
 0001:0002203C      _HB_FUN_DISPBEGIN
 0001:0001E94C      _HB_FUN_DISPBOX
 0001:0002204C      _HB_FUN_DISPCOUNT
 0001:00022044      _HB_FUN_DISPEND
 0001:0001FD88      _HB_FUN_DISPOUT
 0001:0001FE78      _HB_FUN_DISPOUTAT
 0001:000137D0      _HB_FUN_DOSERROR
 0001:00020CF0      _HB_FUN_DOW
 0001:00020A30      _HB_FUN_DTOC
 0001:00020A9C      _HB_FUN_DTOS
 0001:00020DC8      _HB_FUN_EMPTY
 0001:00037A9C      _HB_FUN_EOF
 0001:00013760      _HB_FUN_ERRORBLOCK
 0001:0000869C      _HB_FUN_ERRORLEVEL
 0001:00034D4C      _HB_FUN_ERRORNEW
 0001:000348CC      _HB_FUN_ERRORSYS
 0001:00026630      _HB_FUN_EXP
 0001:0002785C      _HB_FUN_FCLOSE
 0001:00037AD8      _HB_FUN_FCOUNT
 0001:00027640      _HB_FUN_FCREATE
 0001:000278B8      _HB_FUN_FERASE
 0001:0002782C      _HB_FUN_FERROR
 0001:00000239      _HB_FUN_FGRAVAMOEDA
 0001:00037B08      _HB_FUN_FIELDDEC
 0001:00037B70      _HB_FUN_FIELDGET
 0001:00037BDC      _HB_FUN_FIELDLEN
 0001:00037C44      _HB_FUN_FIELDNAME
 0001:00037CD8      _HB_FUN_FIELDPOS
 0001:00037D64      _HB_FUN_FIELDPUT
 0001:00037DB0      _HB_FUN_FIELDTYPE
 0001:00021044      _HB_FUN_FILE
 0001:00037E1C      _HB_FUN_FLOCK
 0001:000275C4      _HB_FUN_FOPEN
 0001:00037E84      _HB_FUN_FOUND
 0001:00027720      _HB_FUN_FREAD
 0001:000279D8      _HB_FUN_FREADSTR
 0001:000278FC      _HB_FUN_FRENAME
 0001:00027960      _HB_FUN_FSEEK
 0001:000277AC      _HB_FUN_FWRITE
 0001:00032498      _HB_FUN_GETDEFAULTPRINTER
 0001:000327E0      _HB_FUN_GETPRINTERS
 0001:00000184      _HB_FUN_GRAVARINFORMACOES
 0001:00034B6C      _HB_FUN_HBCLASS
 0001:0001FF8C      _HB_FUN_HBCONSOLELOCK
 0001:0001FF90      _HB_FUN_HBCONSOLEUNLOCK
 0001:00034DC4      _HB_FUN_HBOBJECT
 0001:0000FCC4      _HB_FUN_HB_AEXPRESSIONS
 0001:0000FC94      _HB_FUN_HB_APARAMS
 0001:00012AE4      _HB_FUN_HB_ARGC
 0001:00012A4C      _HB_FUN_HB_ARGCHECK
 0001:00012A90      _HB_FUN_HB_ARGSTRING
 0001:00012AFC      _HB_FUN_HB_ARGV
 0001:0000F444      _HB_FUN_HB_ARRAYID
 0001:00011618      _HB_FUN_HB_ARRAYTOSTRUCTURE
 0001:0000FEC4      _HB_FUN_HB_ATOKENS
 0001:0002D310      _HB_FUN_HB_ATX
 0001:0002E0CC      _HB_FUN_HB_CLOCKS2SECS
 0001:00027E6C      _HB_FUN_HB_CLOSEPROCESS
 0001:000309EC      _HB_FUN_HB_COLORTON
 0001:00015BF8      _HB_FUN_HB_EXEC
 0001:00015654      _HB_FUN_HB_EXECFROMARRAY
 0001:00028068      _HB_FUN_HB_FCOMMIT
 0001:000276A0      _HB_FUN_HB_FCREATE
 0001:0000D2C8      _HB_FUN_HB_FM_NOSTAT
 0001:00021FD8      _HB_FUN_HB_FTEMPCREATE
 0001:00008AD8      _HB_FUN_HB_FUNCPTR
 0001:00027AF0      _HB_FUN_HB_F_EOF
 0001:000179FC      _HB_FUN_HB_GCALL
 0001:000179F4      _HB_FUN_HB_GCSTEP
 0001:00022064      _HB_FUN_HB_GT_VERSION
 0001:00018928      _HB_FUN_HB_HFIND
 0001:00018758      _HB_FUN_HB_I18NGETBASELANGUAGE
 0001:0001876C      _HB_FUN_HB_I18NGETBASELANGUAGENAME
 0001:00018730      _HB_FUN_HB_I18NGETLANGUAGE
 0001:00018744      _HB_FUN_HB_I18NGETLANGUAGENAME
 0001:00018638      _HB_FUN_HB_I18NGETPATH
 0001:00018154      _HB_FUN_HB_I18NLOADTABLE
 0001:00018404      _HB_FUN_HB_I18NSAVETABLE
 0001:00018780      _HB_FUN_HB_I18NSETBASELANGUAGE
 0001:0001864C      _HB_FUN_HB_I18NSETLANGUAGE
 0001:000185E0      _HB_FUN_HB_I18NSETPATH
 0001:000182A8      _HB_FUN_HB_I18NSORTTABLE
 0001:00023CA0      _HB_FUN_HB_IDLEADD
 0001:00023D30      _HB_FUN_HB_IDLEDEL
 0001:00023C78      _HB_FUN_HB_IDLESTATE
 0001:000345A0      _HB_FUN_HB_ISARRAY
 0001:00034628      _HB_FUN_HB_ISBLOCK
 0001:000343F0      _HB_FUN_HB_ISBYREF
 0001:000344CC      _HB_FUN_HB_ISCHAR
 0001:00034578      _HB_FUN_HB_ISDATE
 0001:0003454C      _HB_FUN_HB_ISLOGIC
 0001:000344F8      _HB_FUN_HB_ISMEMO
 0001:00034488      _HB_FUN_HB_ISNIL
 0001:00034524      _HB_FUN_HB_ISNUM
 0001:000345E4      _HB_FUN_HB_ISOBJECT
 0001:00034654      _HB_FUN_HB_ISPOINTER
 0001:00024328      _HB_FUN_HB_KEYPUT
 0001:00025D74      _HB_FUN_HB_LANGERRMSG
 0001:00025D94      _HB_FUN_HB_LANGMESSAGE
 0001:00025D54      _HB_FUN_HB_LANGNAME
 0001:00025D30      _HB_FUN_HB_LANGSELECT
 0001:0000D5A8      _HB_FUN_HB_LANG_EN
 0001:00008FA0      _HB_FUN_HB_NOMOUSE
 0001:0000CE14      _HB_FUN_HB_OBJMSGPTR
 0001:00027C30      _HB_FUN_HB_OPENPROCESS
 0001:00027C14      _HB_FUN_HB_OSDRIVESEPARATOR
 0001:00027844      _HB_FUN_HB_OSERROR
 0001:0001F6DC      _HB_FUN_HB_OSNEWLINE
 0001:00027C00      _HB_FUN_HB_OSPATHDELIMITERS
 0001:00027BE4      _HB_FUN_HB_OSPATHLISTSEPARATOR
 0001:00027BC8      _HB_FUN_HB_OSPATHSEPARATOR
 0001:000314DC      _HB_FUN_HB_POINTER2STRING
 0001:00027F78      _HB_FUN_HB_PROCESSVALUE
 0001:00008C70      _HB_FUN_HB_QSELF
 0001:00008B90      _HB_FUN_HB_QWITH
 0001:0002D95C      _HB_FUN_HB_REGEX
 0001:0002D96C      _HB_FUN_HB_REGEXATX
 0001:0002D9B8      _HB_FUN_HB_REGEXCOMP
 0001:0002D97C      _HB_FUN_HB_REGEXMATCH
 0001:0002D9A8      _HB_FUN_HB_REGEXSPLIT
 0001:00034D7C      _HB_FUN_HB_RESETTRY
 0001:00008DEC      _HB_FUN_HB_RESTOREBLOCK
 0001:00008D18      _HB_FUN_HB_SAVEBLOCK
 0001:0001F3A4      _HB_FUN_HB_SETCODEPAGE
 0001:00030CE0      _HB_FUN_HB_SETKEYARRAY
 0001:00030F24      _HB_FUN_HB_SETKEYCHECK
 0001:00030D58      _HB_FUN_HB_SETKEYGET
 0001:00030DB4      _HB_FUN_HB_SETKEYSAVE
 0001:0001B7F4      _HB_FUN_HB_SETMACRO
 0001:00034D64      _HB_FUN_HB_SETTRY
 0001:00008BB4      _HB_FUN_HB_SETWITH
 0001:00010294      _HB_FUN_HB_SIZEOFCSTRUCTURE
 0001:00020AF4      _HB_FUN_HB_STOD
 0001:00031568      _HB_FUN_HB_STRING2POINTER
 0001:00011F38      _HB_FUN_HB_STRUCTURETOARRAY
 0001:00032C48      _HB_FUN_HB_TRACELEVEL
 0001:00032C14      _HB_FUN_HB_TRACESTATE
 0001:00032C7C      _HB_FUN_HB_TRACESTRING
 0001:0001F3DC      _HB_FUN_HB_TRANSLATE
 0001:00037EC0      _HB_FUN_HEADER
 0001:00000397      _HB_FUN_HORA
 0001:00018560      _HB_FUN_I18N
 0001:0000019D      _HB_FUN_IMPCUPOMATUAL
 0001:00040090      _HB_FUN_INDEXEXT
 0001:000400A8      _HB_FUN_INDEXKEY
 0001:00037F0C      _HB_FUN_INDEXORD
 0001:00024198      _HB_FUN_INKEY
 0001:0002DC18      _HB_FUN_INT
 0001:00008844      _HB_FUN_INVOKEDEBUG
 0001:00000252      _HB_FUN_LANCACUPOM
 0001:0000026B      _HB_FUN_LANCAEMCAIXA
 0001:0000029D      _HB_FUN_LANCAESTOQUE
 0001:000002B6      _HB_FUN_LANCAMONTAGEM
 0001:000001EE      _HB_FUN_LANCARECEBER
 0001:00000220      _HB_FUN_LANRECMOEDIV
 0001:00024388      _HB_FUN_LASTKEY
 0001:00037F80      _HB_FUN_LASTREC
 0001:00025DB4      _HB_FUN_LEFT
 0001:00025E74      _HB_FUN_LEN
 0001:00037FB0      _HB_FUN_LOCK
 0001:00026718      _HB_FUN_LOG
 0001:00031868      _HB_FUN_LOWER
 0001:00034024      _HB_FUN_LTRIM
 0001:00038014      _HB_FUN_LUPDATE
 0001:0000016B      _HB_FUN_MAIN
 0001:000260D0      _HB_FUN_MATHERRMODE
 0001:00026548      _HB_FUN_MATHERRORBLOCK
 0001:00026A9C      _HB_FUN_MAX
 0001:000268E4      _HB_FUN_MAXCOL
 0001:000268CC      _HB_FUN_MAXROW
 0001:00027110      _HB_FUN_MCOL
 0001:000271B0      _HB_FUN_MDBLCLK
 0001:000268FC      _HB_FUN_MEMOREAD
 0001:0000D2A8      _HB_FUN_MEMORY
 0001:000269F0      _HB_FUN_MEMOWRIT
 0001:0001E30C      _HB_FUN_METHODNAME
 0001:000270A0      _HB_FUN_MHIDE
 0001:00026D30      _HB_FUN_MIN
 0001:00027188      _HB_FUN_MLEFTDOWN
 0001:00020BA8      _HB_FUN_MONTH
 0001:0002707C      _HB_FUN_MPRESENT
 0001:00027298      _HB_FUN_MRESTSTATE
 0001:00027160      _HB_FUN_MRIGHTDOWN
 0001:000270FC      _HB_FUN_MROW
 0001:000271E8      _HB_FUN_MSAVESTATE
 0001:00027358      _HB_FUN_MSETBOUNDS
 0001:000270B8      _HB_FUN_MSETCURSOR
 0001:00027124      _HB_FUN_MSETPOS
 0001:000270AC      _HB_FUN_MSHOW
 0001:0003804C      _HB_FUN_NETERR
 0001:00024348      _HB_FUN_NEXTKEY
 0001:00000333      _HB_FUN_NUMEROCUPOM
 0001:00038090      _HB_FUN_ORDBAGEXT
 0001:00038220      _HB_FUN_ORDBAGNAME
 0001:00038354      _HB_FUN_ORDCONDSET
 0001:000385D0      _HB_FUN_ORDCREATE
 0001:000386C0      _HB_FUN_ORDDESTROY
 0001:00038724      _HB_FUN_ORDFOR
 0001:0003886C      _HB_FUN_ORDKEY
 0001:00038B84      _HB_FUN_ORDKEYADD
 0001:000389B4      _HB_FUN_ORDKEYCOUNT
 0001:00038C3C      _HB_FUN_ORDKEYDEL
 0001:00038A68      _HB_FUN_ORDKEYNO
 0001:00038B1C      _HB_FUN_ORDKEYVAL
 0001:00038CF4      _HB_FUN_ORDLISTADD
 0001:000400C0      _HB_FUN_ORDLISTCLE
 0001:00038E34      _HB_FUN_ORDLISTCLEAR
 0001:000400D8      _HB_FUN_ORDLISTREB
 0001:00038E64      _HB_FUN_ORDLISTREBUILD
 0001:00038E94      _HB_FUN_ORDNAME
 0001:00038FC0      _HB_FUN_ORDNUMBER
 0001:00039678      _HB_FUN_ORDSCOPE
 0001:000400F0      _HB_FUN_ORDSETFOCU
 0001:000390A4      _HB_FUN_ORDSETFOCUS
 0001:0001F964      _HB_FUN_OUTERR
 0001:0001F900      _HB_FUN_OUTSTD
 0001:000273BC      _HB_FUN_PADC
 0001:000274DC      _HB_FUN_PADR
 0001:0001FB14      _HB_FUN_PCOL
 0001:0001E2D0      _HB_FUN_PCOUNT
 0001:000001B6      _HB_FUN_PRECOCONVERTIDO
 0001:000323D4      _HB_FUN_PRINTEREXISTS
 0001:000325B8      _HB_FUN_PRINTERPORTTONAME
 0001:00032760      _HB_FUN_PRINTFILERAW
 0001:0001E3B4      _HB_FUN_PROCFILE
 0001:0001E37C      _HB_FUN_PROCLINE
 0001:0001E344      _HB_FUN_PROCNAME
 0001:0001FAFC      _HB_FUN_PROW
 0001:0001FA2C      _HB_FUN_QOUT
 0001:0001F9C8      _HB_FUN_QQOUT
 0001:00040120      _HB_FUN_RDDINIT
 0001:00039158      _HB_FUN_RDDLIST
 0001:000391C8      _HB_FUN_RDDNAME
 0001:00039234      _HB_FUN_RDDREGISTER
 0001:0003F884      _HB_FUN_RDDSETDEFA
 0001:000394F0      _HB_FUN_RDDSETDEFAULT
 0001:00040138      _HB_FUN_RDDSYS
 0001:000392A4      _HB_FUN_RECCOUNT
 0001:000392AC      _HB_FUN_RECNO
 0001:000392E0      _HB_FUN_RECSIZE
 0001:0002DAD8      _HB_FUN_REPLICATE
 0001:0002DF60      _HB_FUN_RESTSCREEN
 0001:000002CF      _HB_FUN_RETORNAESTOQUE
 0001:0003932C      _HB_FUN_RLOCK
 0001:0002DE24      _HB_FUN_ROUND
 0001:000310DC      _HB_FUN_ROW
 0001:00034090      _HB_FUN_RTRIM
 0001:0002DEB4      _HB_FUN_SAVESCREEN
 0001:0003F740      _HB_FUN_SDF_GETFUNCTABLE
 0001:0002E08C      _HB_FUN_SECONDS
 0001:0002E0A8      _HB_FUN_SECONDSCPU
 0001:00039394      _HB_FUN_SELECT
 0001:0002E948      _HB_FUN_SET
 0001:000309A0      _HB_FUN_SETBLINK
 0001:0002E6E8      _HB_FUN_SETCANCEL
 0001:00030948      _HB_FUN_SETCOLOR
 0001:00030A58      _HB_FUN_SETCURSOR
 0001:00030C00      _HB_FUN_SETKEY
 0001:000310A0      _HB_FUN_SETPOS
 0001:0001FC84      _HB_FUN_SETPRC
 0001:0003112C      _HB_FUN_SPACE
 0001:00026808      _HB_FUN_SQRT
 0001:00020D88      _HB_FUN_STOD
 0001:000313AC      _HB_FUN_STR
 0001:00031B14      _HB_FUN_STRTRAN
 0001:00031E3C      _HB_FUN_STRZERO
 0001:00032014      _HB_FUN_SUBSTR
 0001:0001E838      _HB_FUN_SYSINIT
 0001:00034E3C      _HB_FUN_TASSOCIATIVEARRAY
 0001:00020C90      _HB_FUN_TIME
 0001:00034E9C      _HB_FUN_TRACELOG
 0001:00032CB0      _HB_FUN_TRANSFORM
 0001:00034118      _HB_FUN_TRIM
 0001:000341BC      _HB_FUN_TYPE
 0001:000318C4      _HB_FUN_UPPER
 0001:0003944C      _HB_FUN_USED
 0001:000342F8      _HB_FUN_VAL
 0001:00034884      _HB_FUN_VALTOPRG
 0001:0003489C      _HB_FUN_VALTOPRGEXP
 0001:000343C8      _HB_FUN_VALTYPE
 0001:0000031A      _HB_FUN_VENDAFILE
 0001:00020B34      _HB_FUN_YEAR
 0001:0003F7DC      _HB_FUN__DBF
 0001:0003F62C      _HB_FUN__DBFC
 0001:00051BE0      _HB_FUN__DBFDBT
 0001:00051AE0      _HB_FUN__DBFNTX
 0001:0003FFE8      _HB_FUN__DELIM
 0001:0003F6B4      _HB_FUN__DELIMC
 0001:00040180      _HB_FUN__SDF
 0001:0003F73C      _HB_FUN__SDFC
 0001:00034CEC      _HB_FUN___CLASSADD
 0001:0000BFFC      _HB_FUN___CLASSH
 0001:00034D04      _HB_FUN___CLASSINS
 0001:0000BE5C      _HB_FUN___CLASSNAME
 0001:00034CD4      _HB_FUN___CLASSNEW
 0001:0000BE64      _HB_FUN___CLASSSEL
 0001:0000A948      _HB_FUN___CLSADDMSG
 0001:0000B1C8      _HB_FUN___CLSDELMSG
 0001:0000CEE4      _HB_FUN___CLSGETHANDLEFROMNAME
 0001:0000CBE4      _HB_FUN___CLSGETIVARNAMESANDVALUES
 0001:0000C9D0      _HB_FUN___CLSGETPROPERTIES
 0001:0000CA8C      _HB_FUN___CLSGETPROPERTIESANDVALUES
 0001:0000B338      _HB_FUN___CLSINST
 0001:0000BC34      _HB_FUN___CLSINSTSUPER
 0001:0000B644      _HB_FUN___CLSMODMSG
 0001:0000B850      _HB_FUN___CLSMSGASSIGNED
 0001:0000AAB4      _HB_FUN___CLSNEW
 0001:0000BF60      _HB_FUN___CLSPARENT
 0001:0000BD5C      _HB_FUN___CLS_CNTCLSDATA
 0001:0000BDAC      _HB_FUN___CLS_CNTDATA
 0001:0000BDE4      _HB_FUN___CLS_DECDATA
 0001:0000BE1C      _HB_FUN___CLS_INCDATA
 0001:0000C944      _HB_FUN___CLS_PAR00
 0001:0000C890      _HB_FUN___CLS_PARAM
 0001:0003AE84      _HB_FUN___DBAPP
 0001:00039AC8      _HB_FUN___DBARRANGE
 0001:00036038      _HB_FUN___DBCONTINUE
 0001:0003AF18      _HB_FUN___DBCOPY
 0001:00036820      _HB_FUN___DBLOCATE
 0001:00036E28      _HB_FUN___DBPACK
 0001:00037310      _HB_FUN___DBSETFOUND
 0001:00036DD8      _HB_FUN___DBSETLOCATE
 0001:00037A30      _HB_FUN___DBZAP
 0001:000135CC      _HB_FUN___DYNSCOUNT
 0001:00013630      _HB_FUN___DYNSGETINDEX
 0001:000135E4      _HB_FUN___DYNSGETNAME
 0001:000136BC      _HB_FUN___DYNSGETPRF
 0001:0001366C      _HB_FUN___DYNSISFUN
 0001:0001FA9C      _HB_FUN___EJECT
 0001:0001374C      _HB_FUN___ERRINHANDLER
 0001:0001452C      _HB_FUN___ERRRT_BASE
 0001:00014578      _HB_FUN___ERRRT_SBASE
 0001:0000C044      _HB_FUN___EVAL
 0001:0000BF34      _HB_FUN___GETMESSAGE
 0001:0000C9C4      _HB_FUN___GETMSGPRF
 0001:00024234      _HB_FUN___KEYBOARD
 0001:0001D790      _HB_FUN___MVCLEAR
 0001:0001D7A0      _HB_FUN___MVDBGINFO
 0001:0001D8A0      _HB_FUN___MVEXIST
 0001:0001D8E8      _HB_FUN___MVGET
 0001:0001D458      _HB_FUN___MVPRIVATE
 0001:0001D31C      _HB_FUN___MVPUBLIC
 0001:0001D9CC      _HB_FUN___MVPUT
 0001:0001D6B0      _HB_FUN___MVRELEASE
 0001:0001DEA4      _HB_FUN___MVRESTORE
 0001:0001DCD8      _HB_FUN___MVSAVE
 0001:0001D728      _HB_FUN___MVSCOPE
 0001:0001D58C      _HB_FUN___MVXRELEASE
 0001:0003480C      _HB_FUN___NONOALERT
 0001:00034A94      _HB_FUN___OBJADDACCESSASSIGN
 0001:00034A7C      _HB_FUN___OBJADDDATA
 0001:00034A64      _HB_FUN___OBJADDINLINE
 0001:00034A4C      _HB_FUN___OBJADDMETHOD
 0001:0000BA6C      _HB_FUN___OBJCLONE
 0001:00034B24      _HB_FUN___OBJDELDATA
 0001:00034AF4      _HB_FUN___OBJDELINLINE
 0001:00034ADC      _HB_FUN___OBJDELMETHOD
 0001:00034B3C      _HB_FUN___OBJDERIVEDFROM
 0001:0000B960      _HB_FUN___OBJGETCLSNAME
 0001:00034A1C      _HB_FUN___OBJGETDERIVEDDIFF
 0001:000349D4      _HB_FUN___OBJGETMETHODLIST
 0001:000349BC      _HB_FUN___OBJGETMSGLIST
 0001:00034A04      _HB_FUN___OBJGETVALUEDIFF
 0001:000349EC      _HB_FUN___OBJGETVALUELIST
 0001:0003498C      _HB_FUN___OBJHASDATA
 0001:000349A4      _HB_FUN___OBJHASMETHOD
 0001:0000B9E8      _HB_FUN___OBJHASMSG
 0001:00034AC4      _HB_FUN___OBJMODINLINE
 0001:00034AAC      _HB_FUN___OBJMODMETHOD
 0001:0000BB2C      _HB_FUN___OBJSENDMSG
 0001:00034B0C      _HB_FUN___OBJSETMETHOD
 0001:00034A34      _HB_FUN___OBJSETVALUELIST
 0001:00008D00      _HB_FUN___OPCOUNT
 0001:00008D14      _HB_FUN___OPGETPRF
 0001:00018A0C      _HB_FUN___QUIT
 0001:0003B26C      _HB_FUN___RDDGETTEMPALIAS
 0001:00039470      _HB_FUN___RDDSETDEFAULT
 0001:0000BF98      _HB_FUN___SENDER
 0001:0002E72C      _HB_FUN___SETCENTURY
 0001:0001E820      _HB_FUN___SETHELPK
 0001:000089E4      _HB_FUN___SETPROFILER
 0001:000089E8      _HB_FUN___TRACEPRGCALLS
 0001:000089B8      _HB_FUN___VMVARGLIST
 0001:000088B4      _HB_FUN___VMVARSGET
 0001:0000889C      _HB_FUN___VMVARSLEN
 0001:00008870      _HB_FUN___VMVARSLIST
 0001:000088DC      _HB_FUN___VMVARSSET
 0001:0003467C      _HB_FUN___XHELP
 0001:00034784      _HB_FUN___XRESTSCREEN
 0001:00034718      _HB_FUN___XSAVESCREEN
 0001:00008FA4      _MsgToNum
 0001:00049F14      _SimpLex_CheckToken
 0001:0004A268      _SimpLex_CheckWords
 0001:000496EC      _SimpLex_GetNextToken
 0001:0000FFCC      _SizeOfCStructure
 0001:000116B8      _StructureToArray
 0001:00032BBC      _TraceLog
 0001:00023324      _WintoDosError
 0002:000197E0      __AmPm
 0003:0000CF90      __C0argc
 0003:0000CF94      __C0argv
 0003:0000CF98      __C0environ
 0001:000625E6      __CurrExcContext
 0002:000197E8      __Days
 0003:0000CB18      __DestructorCountPtr
 0001:0005E86C      __ErrorExit
 0001:0005E740      __ErrorMessage
 0001:0005E680      __ErrorMessageHelper
 0003:0000CFB0      __ExcRegPtr
 0001:00058A4C      __ExceptInit
 0002:000183F0      __ExceptVarsSize
 0001:00058157      __ExceptionHandler
 0001:00000059      __GetExceptDLLinfo
 0001:00058A98      __GetExceptDLLinfoInternal
 0001:00061188      __Global_unwind
 0003:0000CB20      __HandlerPtr
 0001:00058C34      __InitDefaultHander
 0002:000197B0      __LMonth
 0002:00019764      __LWeekday
 0001:0005F5FC      __LoadProg
 0001:000617F4      __Local_unwind
 0002:000001D4      __PackageInfoTable
 0001:00061807      __Return_unwind
 0002:00019780      __SMonth
 0002:00019748      __SWeekday
 0001:00058C48      __SetExceptionHandler
 0001:00058BE8      __SetUserHandler
 0002:000001C3      __TLS_index
 0002:000001C7      __TLS_index4
 0001:00058C5D      __UnsetExceptionHandler
 0001:00058C89      __UnwindException
 0003:0000CB24      __UserHandlerPtr
 0002:000197F4      __YDays
 0002:000001D0      ___CPPdebugHook
 0002:000001D0      ___CPPdebugHook_segment
 0002:00018354      ___CPPexceptionList
 0001:00056E64      ___CRTL_MEM_CheckBorMem
 0001:00056DE8      ___CRTL_MEM_GetBorMemPtrs
 0001:00056EA0      ___CRTL_MEM_Revector
 0001:00056F58      ___CRTL_MEM_UseBorMM
 0001:00060368      ___CRTL_TLS_Alloc
 0001:000603AC      ___CRTL_TLS_ExitThread
 0001:00060370      ___CRTL_TLS_Free
 0001:000603B4      ___CRTL_TLS_GetInfo
 0001:00060380      ___CRTL_TLS_GetValue
 0001:000603A4      ___CRTL_TLS_InitThread
 0001:00060390      ___CRTL_TLS_SetValue
 0001:00057BC0      ___CRTL_VCLLIB_Linkage
 0001:00057BBC      ___CRTL_VCL_Init
 0001:0005A2E4      ___DOSerror
 0001:00058AC0      ___DefHandler
 0001:0005E85C      ___ErrorMessage
 0002:00018370      ___ExceptStaticXbuff
 0001:0005A2A0      ___IOerror
 0001:00060AC3      ___JumpToCatch__
 0001:0005A304      ___NTerror
 0001:00000140      ___System__GetTls
 0001:00061868      ____ExceptionHandler
 0001:00059458      ____wopen
 0001:00058CB4      ___access
 0002:00017FF0      ___allocated
 0001:000589A0      ___call_terminate
 0001:00058A14      ___call_unexpected
 0001:00058CF0      ___close
 0002:00019928      ___debuggerDisableTerminateCallback
 0001:00058C96      ___doGlobalUnwind
 0001:00058D50      ___dup
 0001:00058D64      ___dup2
 0001:00058E54      ___eof
 0002:00018358      ___exceptFlags
 0002:0001836C      ___exceptMemAllocVars
 0002:00018368      ___exceptStaticBuffP
 0001:00059E70      ___fputn
 0001:00058EDC      ___ftruncate
 0001:00059DF4      ___getfp
 0002:0001931C      ___ieee_64_n_inf
 0002:0001932C      ___ieee_64_n_nanq
 0002:0001933C      ___ieee_64_n_nans
 0002:0001934C      ___ieee_64_n_zero
 0002:00019314      ___ieee_64_p_inf
 0002:00019324      ___ieee_64_p_nanq
 0002:00019334      ___ieee_64_p_nans
 0002:00019344      ___ieee_64_p_zero
 0001:0005C40C      ___int64toa
 0002:000001B5      ___isDLL
 0002:0000017C      ___isGUI
 0002:000001B4      ___isVCLPackage
 0001:00059000      ___isatty
 0001:00059030      ___isatty_osfhandle
 0001:0005B4D4      ___isctype
 0001:0005B518      ___iswctype
 0001:0005C4C0      ___ldtrunc
 0002:00018FD8      ___locale
 0001:0005C6B8      ___longtoa
 0001:00059048      ___lseek
 0001:0005BDF8      ___matherr
 0001:0005A4B8      ___mkname
 0001:0005C122      ___nextreal
 0001:000590C0      ___open
 0001:00059D48      ___openfp
 0001:00059A18      ___org__chdrive
 0001:00057928      ___org__expand
 0001:0005A08C      ___org__fullpath
 0001:0005A160      ___org__getdcwd
 0001:0005C7C0      ___org__matherrl
 0001:00057BA0      ___org__msize
 0001:000597BC      ___org__pipe
 0001:000598D8      ___org__read
 0001:00059890      ___org__rtl_read
 0001:0005992C      ___org__rtl_write
 0001:0005F27C      ___org__searchenv
 0001:0005F2AC      ___org__searchstr
 0001:0005DAC0      ___org__strtold
 0001:00059974      ___org__write
 0001:00059990      ___org_access
 0001:0005C030      ___org_atof
 0001:0005C0AC      ___org_atoi
 0001:0005C044      ___org_atol
 0001:00056C68      ___org_calloc
 0001:0005C0BC      ___org_ceil
 0001:00059AB4      ___org_chsize
 0001:00059ABC      ___org_close
 0001:0005EB48      ___org_cwait
 0001:00056C94      ___org_delete
 0001:00056CA4      ___org_deletea
 0001:00059AC4      ___org_dup
 0001:00059ACC      ___org_dup2
 0001:00059AD4      ___org_eof
 0001:0005C164      ___org_exp
 0001:00059ADC      ___org_fclose
 0001:00059B6C      ___org_fflush
 0001:00059E20      ___org_fopen
 0001:00059E4C      ___org_fprintf
 0001:0005A3A0      ___org_fputc
 0001:00056E78      ___org_free
 0001:00059FA8      ___org_fseek
 0001:0005A00C      ___org_ftell
 0001:000609F8      ___org_ftime
 0001:0005EC1C      ___org_getenv
 0001:00060524      ___org_gmtime
 0001:0005A318      ___org_isatty
 0001:0005C748      ___org_itoa
 0001:0006053C      ___org_localtime
 0001:0005A320      ___org_lock
 0001:0005C5D8      ___org_log
 0001:0005C648      ___org_log10
 0001:0005A4B0      ___org_lseek
 0001:00056E68      ___org_malloc
 0001:0005B6C0      ___org_mblen
 0001:0005B884      ___org_mbstowcs
 0001:0005B73C      ___org_mbtowc
 0001:00057BC4      ___org_memchr
 0001:00057E7C      ___org_memcmp
 0001:00057BE4      ___org_memcpy
 0001:00057C08      ___org_memmove
 0001:00057C54      ___org_memset
 0001:0005A54C      ___org_open
 0001:0005C808      ___org_pow
 0001:0005A55C      ___org_printf
 0001:0005EB1C      ___org_qsort
 0001:0005FE50      ___org_raise
 0001:0005A580      ___org_read
 0001:00056E88      ___org_realloc
 0001:0005A588      ___org_setmode
 0001:0005A5F4      ___org_setvbuf
 0001:0005F25C      ___org_spawnvp
 0001:0005A66C      ___org_sprintf
 0001:0005DA5C      ___org_sqrt
 0001:00057CF8      ___org_strcat
 0001:00057D34      ___org_strchr
 0001:00057EE8      ___org_strdup
 0001:00057D88      ___org_strlen
 0001:00057DE4      ___org_strncat
 0001:00057E54      ___org_strncmp
 0001:00057F1C      ___org_strncpy
 0001:00057F6C      ___org_strpbrk
 0001:00057F98      ___org_strrchr
 0001:00057FC4      ___org_strstr
 0001:0005DB28      ___org_strtod
 0001:00058018      ___org_strtok
 0001:0005A7D4      ___org_tmpnam
 0001:0005C778      ___org_ultoa
 0001:0005A360      ___org_unlock
 0001:0005A808      ___org_vfprintf
 0001:0005A694      ___org_vsprintf
 0001:0005B9EC      ___org_wcstombs
 0001:0005B810      ___org_wctomb
 0001:0005B218      ___org_write
 0003:0000D000      ___pCPPdebugHook
 0002:00019568      ___pCallAtExitProcs
 0001:00060D2D      ___raiseDebuggerException
 0001:00059328      ___read
 0001:0005C11C      ___realcvt
 0002:00018318      ___terminatePTR
 0002:00018364      ___throwExceptionName
 0002:0001835C      ___throwFileName
 0002:00018360      ___throwLineNumber
 0001:0005A508      ___tmpnam
 0002:0001831C      ___unexpectdPTR
 0002:000001C2      ___useDynamicTLS
 0001:0005C72C      ___utoa
 0001:0005A8DC      ___vprinter
 0001:00059914      ___wopen
 0001:00059654      ___write
 0001:0005DB5C      ___xcvt
 0001:0005DE30      ___xcvtw
 0004:00000000      ___xxInfo
 0002:00017FF4      ___xxPersonality
 0001:0005EB50      __abort
 0001:00000000      __acrtused
 0002:00019658      __add_pid_ptr
 0001:00059998      __allocbuf
 0003:0000CFA4      __argc
 0003:0000CD6C      __argv
 0002:00019638      __argv0
 0001:0005EC90      __argv_default_expand
 0002:00019630      __argv_expand_ptr
 0001:0005E5D0      __assert
 0003:0000C6EC      __bormm_pfn_FreeMem
 0003:0000C6F0      __bormm_pfn_GetMem
 0003:0000C6F8      __bormm_pfn_HeapAddRef
 0003:0000C6FC      __bormm_pfn_HeapRelease
 0003:0000C6F4      __bormm_pfn_ReallocMem
 0001:0005EC0C      __c_exit
 0001:0005EBFC      __cexit
 0002:00018458      __cfinfo_get
 0002:00018A98      __chartype
 0001:00059A18      __chdrive
 0001:00060158      __cleanup
 0001:0005C0D8      __clear87
 0002:000195DC      __cmdline_escapes
 0001:0005C0EC      __control87
 0001:0006007C      __create_shmem
 0001:0005CD20      __cvt_init
 0001:0005D054      __cvt_initw
 0001:0005FF04      __cwait
 0002:00019910      __daylight
 0002:0001929C      __default87
 0003:0000CFA8      __dll_table
 0002:0001846C      __dosErrorToSV
 0003:0000CB28      __doserrno
 0001:0005F3EC      __dummy_add_pid
 0001:0000D354      __dup_handle
 0003:0000CD8C      __env_lock
 0003:0000CD80      __environ
 0003:0000CD88      __envsize
 0003:0000CFC4      __exe_table
 0001:0005EBE4      __exit
 0001:00058C20      __exit_except
 0001:0005A778      __exit_streams
 0001:0005ED68      __exitargv
 0002:0001957C      __exitargv_ptr
 0002:0001956C      __exitbuf
 0002:00019570      __exitfopen
 0002:00019574      __exitopen
 0001:00057928      __expand
 0001:0005FA5C      __expandblock
 0001:0005C1DD      __f87_Exp
 0001:0005C1D5      __f87_Exp10
 0001:0005C1D0      __f87_Exp2
 0001:0005C2A8      __f87_Log
 0001:0005C2A4      __f87_Log10
 0001:0005C2A0      __f87_Log2
 0002:00018460      __fileinfo
 0001:0005BD90      __finite
 0002:00017FD0      __firstHeap
 0002:00019358      __floatconvert
 0001:00059784      __flushall
 0001:00059BEC      __flushout
 0002:00018464      __fmode
 0002:00018468      __fmodeptr
 0001:0005C364      __fpreset
 0002:00017FDC      __freeStart
 0001:0000D3BC      __free_handle
 0001:00056F48      __free_heaps
 0001:0005C37C      __ftol
 0001:0005C3A4      __fuildq
 0001:0005C3D4      __fuistq
 0001:0005A08C      __fullpath
 0001:0005C3F8      __fxam
 0001:00000066      __getHInstance
 0001:0005B278      __getLocaleNumericInfo
 0001:0000D30C      __get_handle
 0001:0005A160      __getdcwd
 0001:00059A48      __getdrive
 0001:0005E248      __getmbcp
 0002:000001CB      __hInstance
 0001:0005EFA4      __handle_exitargv
 0001:0005EE4C      __handle_setargv
 0001:0005F1C8      __handle_wexitargv
 0001:0005F034      __handle_wsetargv
 0003:0000118C      __handles
 0002:00017F98      __heap_redirector
 0002:000192DC      __huge_dble
 0002:000192D8      __huge_flt
 0002:000192E4      __huge_ldble
 0002:00019304      __indefinite
 0001:0005E250      __initMBCSTable
 0001:00058C08      __init_except
 0001:00060084      __init_exit_proc
 0001:0000D478      __init_handles
 0001:0005ECB8      __init_setargv_handlers
 0001:0005A6BC      __init_streams
 0001:0005EC74      __init_wild_handlers
 0001:00059C58      __initfileinfo
 0001:00059C48      __initfmode
 0001:0005C7F0      __initmatherr
 0001:00057540      __internal_free
 0001:000578C8      __internal_free_heaps
 0001:000576B0      __internal_malloc
 0001:00057B08      __internal_realloc
 0001:0000005E      __isDLL
 0001:00060564      __isDST
 0002:00019740      __isWindows
 0001:0005E260      __ismbcalpha
 0001:0005E2A0      __ismbcdigit
 0001:0005E2BC      __ismbcspace
 0001:0005BDB0      __isnan
 0002:0001947C      __kalpha
 0002:0001947E      __kpunct
 0002:00017FD4      __lastHeap
 0002:00017FD8      __linktable
 0001:0005BBB3      __lldiv
 0001:0005BC74      __llmod
 0001:0005BB90      __llmul
 0001:0005BD3C      __llshl
 0001:0005BD58      __llshr
 0001:0005BC2B      __lludiv
 0001:0005BCEE      __llumod
 0001:0005BD74      __llushr
 0002:00018C9C      __lower
 0001:0005C798      __ltoa
 0001:0005B570      __ltolower
 0001:0005B618      __ltoupper
 0001:0005B5C4      __ltowlower
 0001:0005B66C      __ltowupper
 0001:00025FC0      __matherr
 0001:0005C7C0      __matherrl
 0002:00019380      __mathwhy
 0002:000192F2      __max_dble
 0002:000192EE      __max_flt
 0002:000192FA      __max_ldble
 0003:0000CC40      __mbcsCodePage
 0003:0000CB3C      __mbctype
 0001:0005E2D8      __mbschr
 0001:0005E328      __mbsdec
 0001:0005E380      __mbsicmp
 0001:0005E41C      __mbsnbcpy
 0001:0005E470      __mbsnbicmp
 0001:0005E530      __mbsrchr
 0002:00019514      __messagefile
 0002:00019510      __messagefunc
 0001:00057BA0      __msize
 0002:000191D0      __nextrealptr
 0002:00019238      __nextrealwptr
 0002:00009C9C      __nfile
 0002:0001845C      __notUmask
 0002:00017FC0      __nv_heap_size
 0002:00009CA0      __openfd
 0003:0000CF9C      __oscmd
 0003:0000CFA0      __osenv
 0003:0000CD60      __ostype
 0001:000578B0      __phys_avail
 0003:0000069C      __pidtab
 0001:000597BC      __pipe
 0002:00019378      __pmatherr
 0002:0001937C      __pmatherrl
 0001:0005BEA8      __pow10
 0001:0005C9E4      __qdiv10
 0001:0005CA0C      __qmul10
 0001:000598D8      __read
 0002:000191CC      __realcvtptr
 0002:00019234      __realcvtwptr
 0001:0005D06C      __round
 0002:00017FE8      __rover
 0001:00059890      __rtl_read
 0001:0005992C      __rtl_write
 0001:0005D564      __scan_init
 0001:0005DA44      __scan_initw
 0001:0005C12E      __scanrslt
 0002:000191D8      __scanrsltptr
 0001:0005C128      __scantod
 0002:000191D4      __scantodptr
 0002:00019240      __scanwrsltptr
 0002:0001923C      __scanwtodptr
 0001:0005F27C      __searchenv
 0001:0005F2AC      __searchstr
 0001:0005ECE0      __setargv
 0002:00019588      __setargv__
 0002:00019578      __setargv_ptr
 0002:00019688      __setenvp__
 0001:00058BBC      __setexc
 0001:0005E124      __setmbcp
 0002:00017FC4      __smalloc_threshold
 0001:000601C4      __startup
 0003:0000CFCC      __stkbase
 0002:00018438      __stkchk
 0001:00058080      __stpcpy
 0002:00005AFC      __streams
 0001:0005DAC0      __strtold
 0002:000185A4      __sys_errlist
 0002:00018668      __sys_nerr
 0001:0006006C      __terminate
 0002:0001990C      __timezone
 0002:00019308      __tiny_ldble
 0003:0000CB2C      __tmpnum
 0001:00060678      __totalsec
 0002:00019354      __turboFloat
 0002:00019914      __tzname
 0001:00060810      __tzset
 0001:0005A7EC      __unlink
 0001:00058BD8      __unsetexc
 0001:00058BFC      __unsetuserhandler
 0002:00018D9C      __upper
 0002:00017FC8      __virt_chunk_free
 0002:00017FCC      __virt_chunk_free2
 0002:00017FB8      __virt_chunk_size
 0002:00017FBC      __virt_chunk_size2
 0002:00017FB4      __virt_heap_size
 0003:0000CFBC      __wC0argv
 0003:0000CFC0      __wC0environ
 0001:0005ECA4      __wargv_default_expand
 0002:00019634      __wargv_expand_ptr
 0002:00019584      __wexitargv_ptr
 0001:00057CE0      __wmemset
 0001:0005A554      __wopen
 0003:0000CFB8      __woscmd
 0003:0000CFB4      __wosenv
 0001:00059974      __write
 0001:000598F4      __wrtl_open
 0002:00019580      __wsetargv_ptr
 0001:0005B220      __xfclose
 0001:0005B250      __xfflush
 0002:000166A0      _aPairs
 0001:0005EB64      _abort
 0001:00059990      _access
 0001:0005FEC0      _add_pid
 0001:0005C030      _atof
 0001:0005C0AC      _atoi
 0001:0005C044      _atol
 0002:0000B478      _b_MouseEnable
 0001:00056C68      _calloc
 0001:0005C0BC      _ceil
 0001:00059AB4      _chsize
 0001:000609E0      _clock
 0001:00059ABC      _close
 0001:0005EB48      _cwait
 0001:00059AC4      _dup
 0001:00059ACC      _dup2
 0001:00059AD4      _eof
 0002:0001950C      _errno
 0001:0005EBCC      _exit
 0001:0005C164      _exp
 0001:0005C2E8      _fabs
 0001:00059ADC      _fclose
 0001:00059B6C      _fflush
 0001:0005C2F8      _floor
 0001:0005C314      _fmod
 0001:00059E20      _fopen
 0001:00059E4C      _fprintf
 0001:0005A3A0      _fputc
 0001:00056E78      _free
 0001:00059FA8      _fseek
 0001:0005A00C      _ftell
 0001:000609F8      _ftime
 0001:0005EC1C      _getenv
 0001:00060524      _gmtime
 0001:00032418      _hb_GetDefaultPrinter
 0001:000324EC      _hb_GetPrinterNameByPort
 0001:00032630      _hb_PrintFileRaw
 0001:000321C8      _hb_PrinterExists
 0001:0000C634      _hb___msgGetClsData
 0001:0000C7AC      _hb___msgGetData
 0001:0000C6F4      _hb___msgGetShrData
 0001:0000C67C      _hb___msgSetClsData
 0001:0000C810      _hb___msgSetData
 0001:0000C738      _hb___msgSetShrData
 0001:0000D688      _hb_arrayAdd
 0001:0000D6E0      _hb_arrayAddForward
 0001:0000E9BC      _hb_arrayClone
 0001:0000E8BC      _hb_arrayCopy
 0001:0000E038      _hb_arrayCopyC
 0001:0000D9B4      _hb_arrayDel
 0001:0000E604      _hb_arrayEval
 0001:0000E298      _hb_arrayFill
 0001:0000EC38      _hb_arrayFromParams
 0001:0000ED18      _hb_arrayFromParamsLocked
 0001:0000EB74      _hb_arrayFromStack
 0001:0000DBF0      _hb_arrayGet
 0001:0000DCB0      _hb_arrayGetByRef
 0001:0000E088      _hb_arrayGetC
 0001:0000E114      _hb_arrayGetCLen
 0001:0000E0CC      _hb_arrayGetCPtr
 0001:0000DE8C      _hb_arrayGetDL
 0001:0000DE38      _hb_arrayGetDS
 0001:0000DED8      _hb_arrayGetItemPtr
 0001:0000DF18      _hb_arrayGetL
 0001:0000DFE4      _hb_arrayGetND
 0001:0000DF5C      _hb_arrayGetNI
 0001:0000DFA0      _hb_arrayGetNL
 0001:0000F1D0      _hb_arrayGetNLL
 0001:0000E158      _hb_arrayGetType
 0001:0000DA20      _hb_arrayIns
 0001:0000D75C      _hb_arrayIsObject
 0001:0000E19C      _hb_arrayLast
 0001:0000D738      _hb_arrayLen
 0001:0000D5B8      _hb_arrayNew
 0001:0000EF94      _hb_arrayRegisterHolder
 0001:0000E7DC      _hb_arrayRelease
 0001:0000E6F8      _hb_arrayReleaseBase
 0001:0000EDFC      _hb_arrayReleaseGarbage
 0001:0000F074      _hb_arrayReleaseHolder
 0001:0000F128      _hb_arrayReleaseHolderGarbage
 0001:0000EFD4      _hb_arrayResetHolder
 0001:0000E310      _hb_arrayScan
 0001:0000DB18      _hb_arraySet
 0001:0000DB84      _hb_arraySetForward
 0001:0000D788      _hb_arraySize
 0001:00012688      _hb_arraySort
 0002:00004D80      _hb_bTracePrgCalls
 0001:0001EED4      _hb_cdpFind
 0001:0001EB0C      _hb_cdpRegister
 0001:0001F338      _hb_cdpReleaseAll
 0001:0001EEF8      _hb_cdpSelect
 0001:0001EF10      _hb_cdpSelectID
 0001:0001EF34      _hb_cdpTranslate
 0001:0001F064      _hb_cdpchrcmp
 0001:0001F0DC      _hb_cdpcmp
 0001:0001EFC0      _hb_cdpnTranslate
 0001:0000A004      _hb_clsAddMsg
 0001:0000C880      _hb_clsClassesArray
 0001:0000CE8C      _hb_clsGetHandleFromName
 0001:00009E0C      _hb_clsHasMsg
 0001:000091BC      _hb_clsIsClassRef
 0001:00009860      _hb_clsIsParent
 0001:0000C888      _hb_clsMaxClasses
 0001:00009174      _hb_clsReleaseAll
 0001:0000CF04      _hb_clsSetModule
 0001:0000CD9C      _hb_clsSymbolFromFunction
 0001:000127E4      _hb_cmdargARGC
 0001:000127EC      _hb_cmdargARGV
 0001:000129E4      _hb_cmdargCheck
 0001:000127CC      _hb_cmdargInit
 0001:000127F4      _hb_cmdargIsInternal
 0001:00012A14      _hb_cmdargNum
 0001:00012B54      _hb_cmdargProcessVM
 0001:00012A00      _hb_cmdargString
 0001:00012F10      _hb_codeblockDelete
 0001:00012FB8      _hb_codeblockDeleteGarbage
 0001:00013038      _hb_codeblockEvaluate
 0001:00013090      _hb_codeblockGetRef
 0001:00013070      _hb_codeblockGetVar
 0001:00012EA8      _hb_codeblockMacroNew
 0001:00012C48      _hb_codeblockNew
 0001:0001C3F0      _hb_compCodeBlockEnd
 0001:0001C3B0      _hb_compCodeBlockStart
 0001:00053864      _hb_compExprAddListExpr
 0001:00053BF4      _hb_compExprAssign
 0001:000438BC      _hb_compExprCBVarAdd
 0001:00043B28      _hb_compExprCBVarDel
 0001:0004912C      _hb_compExprCheckMacroVar
 0001:00053518      _hb_compExprClear
 0001:0005352C      _hb_compExprClone
 0001:00048AA8      _hb_compExprDelOperator
 0001:00043844      _hb_compExprDelete
 0001:00053538      _hb_compExprDescription
 0001:000438A4      _hb_compExprErrorType
 0001:00043874      _hb_compExprFree
 0001:00043AE8      _hb_compExprGenPop
 0001:00043AA8      _hb_compExprGenPush
 0001:00043A68      _hb_compExprGenStatement
 0001:00053C0C      _hb_compExprListLen
 0001:00054C28      _hb_compExprListStrip
 0001:000534F0      _hb_compExprNew
 0001:000538D8      _hb_compExprNewAlias
 0001:0005373C      _hb_compExprNewAliasExpr
 0001:00053704      _hb_compExprNewAliasVar
 0001:00053A84      _hb_compExprNewAnd
 0001:00053850      _hb_compExprNewArgList
 0001:00053658      _hb_compExprNewArray
 0001:000439A4      _hb_compExprNewArrayAt
 0001:000535C0      _hb_compExprNewCodeBlock
 0001:0005394C      _hb_compExprNewDiv
 0001:00053A3C      _hb_compExprNewDivEq
 0001:00053570      _hb_compExprNewDouble
 0001:00053B14      _hb_compExprNewEQ
 0001:00053564      _hb_compExprNewEmpty
 0001:000538EC      _hb_compExprNewEqual
 0001:00053A6C      _hb_compExprNewExpEq
 0001:00043948      _hb_compExprNewFunCall
 0001:000538C4      _hb_compExprNewFunName
 0001:00053640      _hb_compExprNewFunRef
 0001:00053B74      _hb_compExprNewGE
 0001:00053B44      _hb_compExprNewGT
 0001:0004393C      _hb_compExprNewIIF
 0001:00053BA4      _hb_compExprNewIN
 0001:00053B5C      _hb_compExprNewLE
 0001:00053B2C      _hb_compExprNewLT
 0001:00053ACC      _hb_compExprNewLike
 0001:0005383C      _hb_compExprNewList
 0001:000535D8      _hb_compExprNewLogical
 0001:000535A0      _hb_compExprNewLong
 0001:000536AC      _hb_compExprNewMacro
 0001:00053AB4      _hb_compExprNewMatch
 0001:00053628      _hb_compExprNewMemVarRef
 0001:0005381C      _hb_compExprNewMethodCall
 0001:0005391C      _hb_compExprNewMinus
 0001:00053A0C      _hb_compExprNewMinusEq
 0001:00053964      _hb_compExprNewMod
 0001:00053A54      _hb_compExprNewModEq
 0001:00053934      _hb_compExprNewMult
 0001:00053A24      _hb_compExprNewMultEq
 0001:00053B8C      _hb_compExprNewNE
 0001:00053BBC      _hb_compExprNewNegate
 0001:000535F0      _hb_compExprNewNil
 0001:00053AE4      _hb_compExprNewNot
 0001:00053A9C      _hb_compExprNewOr
 0001:00053904      _hb_compExprNewPlus
 0001:000539F4      _hb_compExprNewPlusEq
 0001:000539AC      _hb_compExprNewPostDec
 0001:00053994      _hb_compExprNewPostInc
 0001:0005397C      _hb_compExprNewPower
 0001:000539DC      _hb_compExprNewPreDec
 0001:000539C4      _hb_compExprNewPreInc
 0001:000538A0      _hb_compExprNewRTVar
 0001:00053600      _hb_compExprNewSelf
 0001:00053768      _hb_compExprNewSend
 0001:00053790      _hb_compExprNewSendExp
 0001:00043970      _hb_compExprNewString
 0001:0005388C      _hb_compExprNewVar
 0001:00053610      _hb_compExprNewVarRef
 0001:0005382C      _hb_compExprNewWithMethodCall
 0001:000537D8      _hb_compExprNewWithSend
 0001:00048AD8      _hb_compExprPushOperEq
 0001:00048ED0      _hb_compExprPushPostOp
 0001:00048DA0      _hb_compExprPushPreOp
 0001:00054924      _hb_compExprReduceAnd
 0001:00053CF8      _hb_compExprReduceDiv
 0001:000547C0      _hb_compExprReduceEQ
 0001:00054410      _hb_compExprReduceGE
 0001:000545E8      _hb_compExprReduceGT
 0001:00054B78      _hb_compExprReduceIIF
 0001:000541E8      _hb_compExprReduceIN
 0001:000544FC      _hb_compExprReduceLE
 0001:000546D4      _hb_compExprReduceLT
 0001:000490E8      _hb_compExprReduceList
 0001:00053F50      _hb_compExprReduceMinus
 0001:00053C28      _hb_compExprReduceMod
 0001:00053E40      _hb_compExprReduceMult
 0001:00054264      _hb_compExprReduceNE
 0001:00054A4C      _hb_compExprReduceOr
 0001:00054074      _hb_compExprReducePlus
 0001:00049184      _hb_compExprReducePlusStrings
 0001:000439F8      _hb_compExprSetOperand
 0001:00053558      _hb_compExprType
 0001:00048FD4      _hb_compExprUseAliasMacro
 0001:00048C3C      _hb_compExprUseOperEq
 0001:00048F60      _hb_compExprUsePreOp
 0001:00049584      _hb_compFlexDelete
 0001:00049560      _hb_compFlexNew
 0001:0001B9FC      _hb_compGenJump
 0001:0001BA44      _hb_compGenJumpFalse
 0001:0001BAD4      _hb_compGenJumpHere
 0001:0001BA8C      _hb_compGenJumpThere
 0001:0001BAF0      _hb_compGenJumpTrue
 0001:0001BD50      _hb_compGenMessage
 0001:0001BD84      _hb_compGenMessageData
 0001:0001C1F8      _hb_compGenPCode1
 0001:0001C238      _hb_compGenPCode2
 0001:0001C284      _hb_compGenPCode3
 0001:0001C2E0      _hb_compGenPCode4
 0001:0001C348      _hb_compGenPCodeN
 0001:0001BE1C      _hb_compGenPopAliasedVar
 0001:0001BDD0      _hb_compGenPopVar
 0001:0001BFFC      _hb_compGenPushAliasedVar
 0001:0001C144      _hb_compGenPushDouble
 0001:0001C184      _hb_compGenPushFunCall
 0001:0001C11C      _hb_compGenPushLogical
 0001:0001BCD4      _hb_compGenPushLong
 0001:0001BFD4      _hb_compGenPushMemVarRef
 0001:0001C1C0      _hb_compGenPushString
 0001:0001BC58      _hb_compGenPushSymbol
 0001:0001BF3C      _hb_compGenPushVar
 0001:0001BF88      _hb_compGenPushVarRef
 0001:0001B99C      _hb_compLocalVarGetPos
 0001:0001BC00      _hb_compMemvarGenPCode
 0001:00054C64      _hb_compReservedName
 0002:00016490      _hb_comp_ExprTable
 0002:0000B948      _hb_comp_bShortCuts
 0001:0004383C      _hb_comperror
 0001:0004958C      _hb_complex
 0001:000401A0      _hb_compparse
 0001:0001F564      _hb_conInit
 0001:0001F6D4      _hb_conNewLine
 0001:0001F7E8      _hb_conOutAlt
 0001:0001F794      _hb_conOutErr
 0001:0001F740      _hb_conOutStd
 0001:0001F640      _hb_conRelease
 0001:00030920      _hb_conSetColor
 0001:00030A30      _hb_conSetCursor
 0001:000346FC      _hb_conXSaveRestRelease
 0001:00020694      _hb_dateDOW
 0001:00020320      _hb_dateDecStr
 0001:000200A4      _hb_dateDecode
 0001:00020364      _hb_dateEncStr
 0001:0001FF94      _hb_dateEncode
 0001:0002039C      _hb_dateFormat
 0001:0002DFD8      _hb_dateSeconds
 0001:0002026C      _hb_dateStrGet
 0001:00020194      _hb_dateStrPut
 0001:0002072C      _hb_dateTimeStr
 0001:000206FC      _hb_dateToday
 0001:0003FA48      _hb_dbQSortAdvance
 0001:0003FF04      _hb_dbQSortComplete
 0001:0003F9E8      _hb_dbQSortExit
 0001:0003F944      _hb_dbQSortInit
 0001:0003C858      _hb_dbfGetEGcode
 0001:0003C928      _hb_dbfGetMemoBlock
 0001:0003C980      _hb_dbfPutMemoBlock
 0001:000134DC      _hb_dynsymEval
 0001:000133F4      _hb_dynsymFind
 0001:00013578      _hb_dynsymFindFromFunction
 0001:00013390      _hb_dynsymFindName
 0001:00013280      _hb_dynsymGet
 0001:00013334      _hb_dynsymGetCase
 0001:000130AC      _hb_dynsymLog
 0001:00013140      _hb_dynsymNew
 0001:000135A8      _hb_dynsymPos
 0001:00013518      _hb_dynsymRelease
 0001:00013814      _hb_errExit
 0001:00013744      _hb_errForceLink
 0001:00013BCC      _hb_errGetDescription
 0001:00013C50      _hb_errGetFileName
 0001:00014164      _hb_errGetFlags
 0001:00013CE4      _hb_errGetGenCode
 0001:00013D58      _hb_errGetOperation
 0001:00013DD8      _hb_errGetOsCode
 0001:00014034      _hb_errGetProcLine
 0001:00013FB4      _hb_errGetProcName
 0001:00013E4C      _hb_errGetSeverity
 0001:00013EC0      _hb_errGetSubCode
 0001:00013F34      _hb_errGetSubSystem
 0001:000140F0      _hb_errGetTries
 0001:00013804      _hb_errInit
 0001:00014A34      _hb_errInternal
 0001:00013900      _hb_errLaunch
 0001:00013AAC      _hb_errLaunchSubst
 0001:0001382C      _hb_errNew
 0001:000142E0      _hb_errPutArgs
 0001:00013C04      _hb_errPutDescription
 0001:00013C88      _hb_errPutFileName
 0001:0001421C      _hb_errPutFlags
 0001:00013D1C      _hb_errPutGenCode
 0001:000140A8      _hb_errPutModuleName
 0001:00013D90      _hb_errPutOperation
 0001:00013E10      _hb_errPutOsCode
 0001:0001406C      _hb_errPutProcLine
 0001:00013FEC      _hb_errPutProcName
 0001:00013E84      _hb_errPutSeverity
 0001:00013EF8      _hb_errPutSubCode
 0001:00013F6C      _hb_errPutSubSystem
 0001:00014128      _hb_errPutTries
 0001:000145C4      _hb_errRT_BASE
 0001:000146DC      _hb_errRT_BASE_Ext1
 0001:00014794      _hb_errRT_BASE_Subst
 0001:00014844      _hb_errRT_BASE_SubstR
 0001:000149B4      _hb_errRT_DBCMD
 0001:00014360      _hb_errRT_New
 0001:00014444      _hb_errRT_New_Subst
 0001:0001496C      _hb_errRT_TERM
 0001:000149F4      _hb_errRT_TOOLS
 0001:00013BBC      _hb_errRelease
 0001:000137B0      _hb_errorHandler
 0001:00015614      _hb_evalBlock
 0001:000155C4      _hb_evalBlock0
 0001:000155E8      _hb_evalBlock1
 0001:00015298      _hb_evalLaunch
 0001:00015238      _hb_evalNew
 0001:00015268      _hb_evalPutParam
 0001:0001538C      _hb_evalRelease
 0001:000159FC      _hb_execFromArray
 0001:00015E50      _hb_extIsArray
 0001:000211E0      _hb_filecase
 0001:00052694      _hb_fsAddSearchPath
 0001:00023698      _hb_fsAttrDecode
 0001:0002357C      _hb_fsAttrEncode
 0001:00023444      _hb_fsAttrFromRaw
 0001:000234D8      _hb_fsAttrToRaw
 0001:00021C2C      _hb_fsChDir
 0001:00021D44      _hb_fsChDrv
 0001:000218A4      _hb_fsClose
 0001:00021704      _hb_fsCloseProcess
 0001:00021BD4      _hb_fsCommit
 0001:000217C4      _hb_fsCreate
 0001:0002182C      _hb_fsCreateEx
 0001:00021F7C      _hb_fsCreateTemp
 0001:00021C8C      _hb_fsCurDir
 0001:00021CB0      _hb_fsCurDirBuff
 0001:00021E9C      _hb_fsCurDirBuffEx
 0001:00021E3C      _hb_fsCurDrv
 0001:00021B00      _hb_fsDelete
 0001:00021E84      _hb_fsEof
 0001:00021F38      _hb_fsError
 0001:00021E6C      _hb_fsExtOpen
 0001:000528A4      _hb_fsFNameMerge
 0001:000526DC      _hb_fsFNameSplit
 0001:00020FE8      _hb_fsFile
 0001:00023B14      _hb_fsFindClose
 0001:000238E8      _hb_fsFindFirst
 0001:00023A8C      _hb_fsFindNext
 0001:00021E0C      _hb_fsIsDevice
 0001:00021DA8      _hb_fsIsDrv
 0001:00021B64      _hb_fsLock
 0001:00021BFC      _hb_fsMkDir
 0001:00021774      _hb_fsOpen
 0001:000213A8      _hb_fsOpenProcess
 0001:00021F40      _hb_fsOsError
 0001:000212A4      _hb_fsPOpen
 0001:000216CC      _hb_fsProcessValue
 0001:00021928      _hb_fsRead
 0001:000219CC      _hb_fsReadLarge
 0001:00021B30      _hb_fsRename
 0001:00021C5C      _hb_fsRmDir
 0001:00021A5C      _hb_fsSeek
 0001:000218D8      _hb_fsSetDevMode
 0001:00021F48      _hb_fsSetError
 0001:00021AD0      _hb_fsTell
 0001:00021968      _hb_fsWrite
 0001:00021A00      _hb_fsWriteLarge
 0001:0001743C      _hb_gcAlloc
 0001:00017798      _hb_gcCollect
 0001:000177A0      _hb_gcCollectAll
 0001:000179F0      _hb_gcExit
 0001:0001748C      _hb_gcFree
 0001:0001757C      _hb_gcGripDrop
 0001:00017508      _hb_gcGripGet
 0001:000179EC      _hb_gcInit
 0001:000176A4      _hb_gcItemRef
 0001:00017608      _hb_gcLock
 0001:00017930      _hb_gcReleaseAll
 0001:00017650      _hb_gcUnlock
 0001:00052984      _hb_getenv
 0001:00022184      _hb_gtAdjustPos
 0001:000221C4      _hb_gtBox
 0001:000222E4      _hb_gtBoxD
 0001:00022394      _hb_gtBoxS
 0001:00022444      _hb_gtColorSelect
 0001:00022648      _hb_gtColorToN
 0001:00023310      _hb_gtCurrentColor
 0001:00022464      _hb_gtDispBegin
 0001:00022480      _hb_gtDispCount
 0001:00022488      _hb_gtDispEnd
 0001:000231DC      _hb_gtDrawShadow
 0001:00022148      _hb_gtExit
 0001:0002217C      _hb_gtExtendedKeySupport
 0001:00022E08      _hb_gtGetBlink
 0001:0002253C      _hb_gtGetColorStr
 0001:00022B1C      _hb_gtGetCursor
 0001:00022B88      _hb_gtGetPos
 0001:00023300      _hb_gtIndexedColor
 0001:00022078      _hb_gtInit
 0001:00022D10      _hb_gtIsColor
 0001:00022D18      _hb_gtMaxCol
 0001:00022D24      _hb_gtMaxRow
 0001:000224F4      _hb_gtPostExt
 0001:000224A4      _hb_gtPreExt
 0001:00022D30      _hb_gtRectSize
 0001:00022D58      _hb_gtRepChar
 0001:00022D8C      _hb_gtRest
 0001:000232D0      _hb_gtResume
 0001:00022DB4      _hb_gtSave
 0001:00022DDC      _hb_gtScrDim
 0001:0002319C      _hb_gtScroll
 0001:00022E1C      _hb_gtSetBlink
 0001:000227A0      _hb_gtSetColorStr
 0001:00022B30      _hb_gtSetCursor
 0001:00022E30      _hb_gtSetMode
 0001:00022BF0      _hb_gtSetPos
 0001:00022C80      _hb_gtSetPosContext
 0001:00022E64      _hb_gtSetSnowFlag
 0001:0002329C      _hb_gtSuspend
 0001:00023278      _hb_gtTone
 0001:00023294      _hb_gtVersion
 0001:00022E6C      _hb_gtWrite
 0001:00022F0C      _hb_gtWriteAt
 0001:00022F88      _hb_gtWriteCon
 0001:00055298      _hb_gt_AdjustPos
 0001:00055AFC      _hb_gt_Box
 0001:00055F00      _hb_gt_BoxD
 0001:00055F2C      _hb_gt_BoxS
 0001:00055268      _hb_gt_Col
 0001:000552D4      _hb_gt_DispBegin
 0001:000552F4      _hb_gt_DispCount
 0001:000552DC      _hb_gt_DispEnd
 0001:000551D8      _hb_gt_Exit
 0001:00056134      _hb_gt_ExtendedKeySupport
 0001:00055A7C      _hb_gt_GetBlink
 0001:000552AC      _hb_gt_GetCursorStyle
 0001:00055260      _hb_gt_GetScreenHeight
 0001:00055258      _hb_gt_GetScreenWidth
 0001:00055518      _hb_gt_GetText
 0001:00055F58      _hb_gt_HorizLine
 0001:00055030      _hb_gt_Init
 0001:000552A4      _hb_gt_IsColor
 0001:00056118      _hb_gt_OutErr
 0001:000560FC      _hb_gt_OutStd
 0001:000560F4      _hb_gt_PostExt
 0001:000560EC      _hb_gt_PreExt
 0001:000555C8      _hb_gt_PutText
 0001:000552FC      _hb_gt_Puts
 0001:00056190      _hb_gt_ReadKey
 0001:00055504      _hb_gt_RectSize
 0001:00055404      _hb_gt_Replicate
 0001:000560E4      _hb_gt_Resume
 0001:00055270      _hb_gt_Row
 0001:00054F48      _hb_gt_ScreenUpdate
 0001:00055794      _hb_gt_Scroll
 0001:000556B4      _hb_gt_SetAttribute
 0001:00055A84      _hb_gt_SetBlink
 0001:000552B4      _hb_gt_SetCursorStyle
 0001:00055954      _hb_gt_SetMode
 0001:00055278      _hb_gt_SetPos
 0001:000560DC      _hb_gt_Suspend
 0001:00056A3C      _hb_gt_Tone
 0001:00055A8C      _hb_gt_Version
 0001:0005601C      _hb_gt_VertLine
 0001:00018914      _hb_i18nExit
 0001:00018840      _hb_i18nInit
 0001:00017B1C      _hb_i18n_build_table_filename
 0001:00018034      _hb_i18n_load_language
 0001:00017DD4      _hb_i18n_read_table
 0001:00017BC0      _hb_i18n_read_table_header
 0001:00017A18      _hb_i18n_scan_table
 0001:00017F48      _hb_i18n_write_table
 0001:00017D00      _hb_i18n_write_table_header
 0001:00023C08      _hb_idleReset
 0001:00023C2C      _hb_idleShutDown
 0001:00023B50      _hb_idleState
 0001:00023F20      _hb_inkey
 0001:00023FDC      _hb_inkeyLast
 0001:00024010      _hb_inkeyNext
 0001:0002408C      _hb_inkeyPoll
 0001:000242E4      _hb_inkeyPut
 0001:00024110      _hb_inkeyReset
 0001:000243C8      _hb_inkeyTranslate
 0001:00018ADC      _hb_itemArrayGet
 0001:00018ABC      _hb_itemArrayNew
 0001:00018B00      _hb_itemArrayPut
 0001:0001A258      _hb_itemClear
 0001:0001A368      _hb_itemCopy
 0001:00018BDC      _hb_itemCopyC
 0001:000153CC      _hb_itemDo
 0001:00015544      _hb_itemDoC
 0001:0001AA28      _hb_itemFastClear
 0001:0001A11C      _hb_itemForwardValue
 0001:00018C20      _hb_itemFreeC
 0001:00018B44      _hb_itemGetC
 0001:00018BB8      _hb_itemGetCLen
 0001:00018B90      _hb_itemGetCPtr
 0001:00018C74      _hb_itemGetDL
 0001:00018C3C      _hb_itemGetDS
 0001:00018C98      _hb_itemGetL
 0001:00018D10      _hb_itemGetND
 0001:00018D90      _hb_itemGetNI
 0001:00018E00      _hb_itemGetNL
 0001:00019F70      _hb_itemGetNLL
 0001:00019530      _hb_itemGetNLen
 0001:00018E70      _hb_itemGetPtr
 0001:00018A14      _hb_itemNew
 0001:00018A70      _hb_itemPCount
 0001:00019DC8      _hb_itemPadConv
 0001:00018A24      _hb_itemParam
 0001:0001AD30      _hb_itemParamId
 0001:00018A58      _hb_itemParamPtr
 0001:0001A0FC      _hb_itemPushForward
 0001:0001AA90      _hb_itemPushStaticString
 0001:0001A478      _hb_itemPutC
 0001:0001A584      _hb_itemPutCL
 0001:0001A8B4      _hb_itemPutCLStatic
 0001:0001A67C      _hb_itemPutCPtr
 0001:0001A714      _hb_itemPutCRaw
 0001:0001A7A8      _hb_itemPutCRawStatic
 0001:0001A828      _hb_itemPutCStatic
 0001:00018F00      _hb_itemPutD
 0001:00018F84      _hb_itemPutDL
 0001:00018E84      _hb_itemPutDS
 0001:00018FF8      _hb_itemPutL
 0001:0001906C      _hb_itemPutND
 0001:00019330      _hb_itemPutNDLen
 0001:00019124      _hb_itemPutNI
 0001:00019418      _hb_itemPutNILen
 0001:000191A0      _hb_itemPutNL
 0001:00019FEC      _hb_itemPutNLL
 0001:0001A06C      _hb_itemPutNLLLen
 0001:000194A4      _hb_itemPutNLLen
 0001:0001923C      _hb_itemPutNLen
 0001:0001A934      _hb_itemPutPtr
 0001:0001A9AC      _hb_itemPutPtrGC
 0001:00018AA0      _hb_itemRelease
 0001:0001A220      _hb_itemReleaseString
 0001:0001A1E0      _hb_itemReturn
 0001:0001A200      _hb_itemReturnCopy
 0001:00018B20      _hb_itemSetCMemo
 0001:000195D8      _hb_itemSize
 0001:00019890      _hb_itemStr
 0001:00019760      _hb_itemStrCmp
 0001:00019C78      _hb_itemString
 0001:0001A2E0      _hb_itemSwap
 0001:00019608      _hb_itemType
 0001:0001961C      _hb_itemTypeStr
 0001:000196C4      _hb_itemUnRef
 0001:000196DC      _hb_itemUnRefOnce
 0001:00019F2C      _hb_itemValToStr
 0001:00025D1C      _hb_langDGetErrorDesc
 0001:00025C84      _hb_langDGetItem
 0001:00025BD8      _hb_langDeRegister
 0001:00025C00      _hb_langFind
 0001:00025CA8      _hb_langID
 0001:00025CC0      _hb_langName
 0001:00025B88      _hb_langRegister
 0001:00025C24      _hb_langSelect
 0001:00025C60      _hb_langSelectID
 0001:00025B2C      _hb_lang_ForceLink
 0001:0001B5A8      _hb_macroCompile
 0001:0001ADFC      _hb_macroDelete
 0001:0001C39C      _hb_macroError
 0001:0001B57C      _hb_macroExpandString
 0001:0001B6C8      _hb_macroGetType
 0001:0001B210      _hb_macroGetValue
 0001:0001AF70      _hb_macroIsIdent
 0001:0001B3D0      _hb_macroPopAliasedValue
 0001:0001B3EC      _hb_macroPushAliasedValue
 0001:0001B600      _hb_macroPushSymbol
 0001:0001AED4      _hb_macroRun
 0001:0001B7C8      _hb_macroSetMacro
 0001:0001B324      _hb_macroSetValue
 0001:0001AFEC      _hb_macroTextSubst
 0001:0001B688      _hb_macroTextValue
 0001:0004380C      _hb_macroYYParse
 0001:0004945C      _hb_macro_SLX_Hex2L
 0001:000260C8      _hb_mathGetErrMode
 0001:00026300      _hb_mathGetHandler
 0001:00025F3C      _hb_mathGetLastError
 0001:00025FB8      _hb_mathIsMathErr
 0001:00025EF4      _hb_mathResetError
 0001:000260B4      _hb_mathSetErrMode
 0001:000262EC      _hb_mathSetHandler
 0001:0002611C      _hb_matherr
 0001:0000D048      _hb_mem2str
 0001:0001CD48      _hb_memvarCreateFromItem
 0001:0001CAA4      _hb_memvarGet
 0001:0001C81C      _hb_memvarGetPrivatesBase
 0001:0001CB84      _hb_memvarGetRefer
 0001:0001CCDC      _hb_memvarGetStrValuePtr
 0001:0001CB10      _hb_memvarGetValue
 0001:0001E2AC      _hb_memvarGetValueByHandle
 0001:0001E290      _hb_memvarGetVarHandle
 0001:0001CCC0      _hb_memvarNewParameter
 0001:0001D1F0      _hb_memvarReleasePublic
 0001:0001D120      _hb_memvarScope
 0001:0001C830      _hb_memvarSetPrivatesBase
 0001:0001CA30      _hb_memvarSetValue
 0001:0001C608      _hb_memvarValueBaseAddress
 0001:0001C984      _hb_memvarValueDecGarbageRef
 0001:0001C908      _hb_memvarValueDecRef
 0001:0001C88C      _hb_memvarValueIncRef
 0001:0001C610      _hb_memvarValueNew
 0001:0001C4A4      _hb_memvarsInit
 0001:0001E254      _hb_memvarsIsMemvarRef
 0001:0001C524      _hb_memvarsRelease
 0001:00026FFC      _hb_mouseCol
 0001:00027034      _hb_mouseCountButton
 0001:0002705C      _hb_mouseGetBounds
 0001:00026FCC      _hb_mouseGetCursor
 0001:00027024      _hb_mouseIsButtonPressed
 0001:00026FC4      _hb_mouseIsPresent
 0001:00027004      _hb_mouseRow
 0001:0002703C      _hb_mouseSetBounds
 0001:00026FD4      _hb_mouseSetCursor
 0001:0002700C      _hb_mouseSetPos
 0001:00056BF4      _hb_mouse_Col
 0001:00056C44      _hb_mouse_CountButton
 0001:00056BE0      _hb_mouse_Exit
 0001:00056C60      _hb_mouse_GetBounds
 0001:00056BF0      _hb_mouse_Hide
 0001:00056BD0      _hb_mouse_Init
 0001:00056C0C      _hb_mouse_IsButtonPressed
 0001:00056BE4      _hb_mouse_IsPresent
 0001:00056BFC      _hb_mouse_Row
 0001:00056C58      _hb_mouse_SetBounds
 0001:00056C04      _hb_mouse_SetPos
 0001:00056BEC      _hb_mouse_Show
 0003:0000C6E4      _hb_mouse_iCol
 0003:0000C6E8      _hb_mouse_iRow
 0001:0000C9C8      _hb_mthAddTime
 0001:0002DCC0      _hb_numRound
 0001:00009928      _hb_objGetClsName
 0001:00009C04      _hb_objGetMethod
 0001:00009C20      _hb_objGetMthd
 0001:000099E0      _hb_objGetRealCls
 0001:00009B2C      _hb_objGetRealClsName
 0001:00009F08      _hb_objGetpMethod
 0001:00009FD0      _hb_objHasMsg
 0001:0000BAB8      _hb_objSendMsg
 0001:00015D74      _hb_param
 0001:00015E28      _hb_paramError
 0001:00015EF0      _hb_parc
 0001:00015FC4      _hb_parclen
 0001:00016094      _hb_parcsiz
 0001:00016164      _hb_pards
 0001:00016250      _hb_pardsbuff
 0001:0001689C      _hb_parinfa
 0001:000168E0      _hb_parinfo
 0001:00016334      _hb_parl
 0001:000164BC      _hb_parnd
 0001:000165B8      _hb_parni
 0001:000166B0      _hb_parnl
 0001:000172D4      _hb_parnll
 0001:000167B0      _hb_parptr
 0001:000169E4      _hb_pcount
 0001:0001E3E8      _hb_procinfo
 0001:000358EC      _hb_rddFieldGet
 0001:000354C8      _hb_rddFieldIndex
 0001:0003589C      _hb_rddFieldPut
 0001:0003554C      _hb_rddGetCurrentWorkAreaNumber
 0001:00035784      _hb_rddGetCurrentWorkAreaPointer
 0001:0003579C      _hb_rddGetFieldValue
 0001:0003B224      _hb_rddGetTempAlias
 0001:000351F0      _hb_rddInherit
 0001:0003541C      _hb_rddInsertAreaNode
 0001:00035518      _hb_rddIterateWorkAreas
 0001:00035338      _hb_rddNewAreaNode
 0001:0003581C      _hb_rddPutFieldValue
 0001:000352CC      _hb_rddReleaseCurrentArea
 0001:0003566C      _hb_rddSelectWorkAreaAlias
 0001:00035554      _hb_rddSelectWorkAreaNumber
 0001:00035598      _hb_rddSelectWorkAreaSymbol
 0001:0003593C      _hb_rddShutDown
 0001:0002D588      _hb_regex
 0001:00016A14      _hb_ret
 0001:00016A74      _hb_reta
 0001:00016A8C      _hb_retc
 0001:0001AABC      _hb_retcAdopt
 0001:0001AC7C      _hb_retcAdoptStatic
 0001:00016AA4      _hb_retclen
 0001:0001AB2C      _hb_retclenAdopt
 0001:0001ABA8      _hb_retclenAdoptRaw
 0001:0001AC10      _hb_retclenAdoptRawStatic
 0001:0001ACD8      _hb_retclenAdoptStatic
 0001:00016AD8      _hb_retd
 0001:00016AF8      _hb_retdl
 0001:00016AC0      _hb_retds
 0001:00016B10      _hb_retl
 0001:00016B34      _hb_retnd
 0001:00016B9C      _hb_retndlen
 0001:00016B4C      _hb_retni
 0001:00016BBC      _hb_retnilen
 0001:00016B64      _hb_retnl
 0001:00016B7C      _hb_retnlen
 0001:00016BD8      _hb_retnllen
 0001:000173C4      _hb_retnlllen
 0001:00016BF4      _hb_retptr
 0001:0002E044      _hb_secondsCPU
 0003:000021B8      _hb_set
 0001:00030918      _hb_setGetFirstSetPath
 0001:0003048C      _hb_setInitialize
 0001:00023FFC      _hb_setInkeyLast
 0001:00030854      _hb_setListenerAdd
 0001:000308A0      _hb_setListenerNotify
 0001:000308CC      _hb_setListenerRemove
 0001:0003074C      _hb_setRelease
 0001:00030A9C      _hb_setkeyExit
 0001:00030A94      _hb_setkeyInit
 0001:000312E0      _hb_spCreate
 0001:00031344      _hb_spCreateEx
 0001:000311B4      _hb_spFile
 0001:00031298      _hb_spOpen
 0003:00001C84      _hb_stack
 0001:00014F38      _hb_stackBaseItem
 0001:00014E78      _hb_stackBaseOffset
 0001:00014BEC      _hb_stackDec
 0001:00015184      _hb_stackDispCall
 0001:00014F4C      _hb_stackDispLocal
 0001:00014D40      _hb_stackFree
 0001:00014CF4      _hb_stackInit
 0001:00014E90      _hb_stackItem
 0001:00014EE8      _hb_stackItemFromBase
 0001:00014EBC      _hb_stackItemFromTop
 0001:00014DA0      _hb_stackNewFrame
 0001:00014E30      _hb_stackOldFrame
 0001:00014B5C      _hb_stackPop
 0001:00014C14      _hb_stackPush
 0001:00014D7C      _hb_stackRemove
 0001:00014F40      _hb_stackSelfItem
 0001:00014F30      _hb_stackTopItem
 0001:00014E60      _hb_stackTopOffset
 0001:00016C0C      _hb_storc
 0001:00016CE0      _hb_storclen
 0001:00016DBC      _hb_stords
 0001:00016E90      _hb_storl
 0001:00017124      _hb_stornd
 0001:00016F7C      _hb_storni
 0001:00017050      _hb_stornl
 0001:000171FC      _hb_stornll
 0001:000529B8      _hb_strAt
 0001:00031920      _hb_strEmpty
 0001:00033FB4      _hb_strLTrim
 0001:000315B0      _hb_strLower
 0001:00031614      _hb_strLowerCopy
 0001:00031AFC      _hb_strMatchRegExp
 0001:00033FE0      _hb_strRTrimLen
 0001:0003173C      _hb_strUpper
 0001:000316A8      _hb_strUpperCopy
 0001:0003422C      _hb_strVal
 0001:00052A38      _hb_strdup
 0001:00052A68      _hb_stricmp
 0001:000317A0      _hb_strncpyUpper
 0001:000317EC      _hb_strncpyUpperTrim
 0001:00031958      _hb_strnicmp
 0001:00052A10      _hb_strupr
 0002:00004D84      _hb_symEval
 0001:000130E0      _hb_symbolNew
 0002:00017640      _hb_tr_file_
 0001:00052B4C      _hb_tr_level
 0002:00017648      _hb_tr_level_
 0002:00017644      _hb_tr_line_
 0001:00052C40      _hb_tr_trace
 0001:00032BB8      _hb_traceExit
 0001:00032B70      _hb_traceInit
 0001:00052B2C      _hb_tracelevel
 0001:00052B0C      _hb_tracestate
 0001:00052F10      _hb_verBuildInfo
 0001:00052E5C      _hb_verCompiler
 0001:00052EC8      _hb_verHarbour
 0001:00052EF0      _hb_verPCode
 0001:00052D24      _hb_verPlatform
 0001:000065E0      _hb_vmDo
 0001:000003CC      _hb_vmDoInitClip
 0001:00000450      _hb_vmDoInitOle
 0001:000003FC      _hb_vmDoInitRdd
 0001:00006D08      _hb_vmEvalBlock
 0001:00006D30      _hb_vmEvalBlockV
 0001:0000078C      _hb_vmExecute
 0001:0000848C      _hb_vmExplicitStartup
 0001:00008638      _hb_vmFindModule
 0001:00008654      _hb_vmFindModuleByName
 0001:00008694      _hb_vmForceLink
 0001:00006D80      _hb_vmFunction
 0001:00000480      _hb_vmInit
 0001:000089AC      _hb_vmIsGlobalRef
 0001:0000890C      _hb_vmIsLocalRef
 0001:00008950      _hb_vmIsStaticRef
 0001:00008474      _hb_vmLastModule
 0001:00008A1C      _hb_vmProcessDllSymbols
 0001:00008238      _hb_vmProcessSymbols
 0001:00007258      _hb_vmPush
 0001:000075C0      _hb_vmPushDate
 0001:00007434      _hb_vmPushDouble
 0001:00007370      _hb_vmPushInteger
 0001:0000728C      _hb_vmPushLogical
 0001:00007394      _hb_vmPushLong
 0001:00007278      _hb_vmPushNil
 0001:000072C4      _hb_vmPushNumType
 0001:000072A8      _hb_vmPushNumber
 0001:000075DC      _hb_vmPushPointer
 0001:000075F8      _hb_vmPushString
 0001:00007654      _hb_vmPushSymbol
 0001:0000067C      _hb_vmQuit
 0001:0000895C      _hb_vmRegisterGlobals
 0001:00008708      _hb_vmRequestBreak
 0001:00008758      _hb_vmRequestCancel
 0001:0000882C      _hb_vmRequestDebug
 0001:000086FC      _hb_vmRequestEndProc
 0001:00008750      _hb_vmRequestQuery
 0001:000086F0      _hb_vmRequestQuit
 0001:00008838      _hb_vmRequestReset
 0001:0000679C      _hb_vmSend
 0003:00000274      _hb_vm_aEnumCollection
 0003:000000F0      _hb_vm_aWithObject
 0002:00004DAC      _hb_vm_acAscii
 0003:000000AC      _hb_vm_aiExtraElements
 0003:0000002C      _hb_vm_aiExtraParams
 0003:000003F4      _hb_vm_apEnumVar
 0003:0000006C      _hb_vm_apExtraParamsSymbol
 0003:00000434      _hb_vm_awEnumIndex
 0002:0000BD28      _hb_vm_bCollectGarbage
 0002:000051AC      _hb_vm_bWithObject
 0002:00004DA4      _hb_vm_iExtraElements
 0002:00004DA0      _hb_vm_iExtraElementsIndex
 0003:000000EC      _hb_vm_iExtraIndex
 0002:00004D9C      _hb_vm_iExtraParamsIndex
 0002:00004DA8      _hb_vm_sNull
 0002:000051B0      _hb_vm_wEnumCollectionCounter
 0003:00000270      _hb_vm_wWithObjectCounter
 0001:0003B5D8      _hb_waAddField
 0001:0003B9D0      _hb_waAlias
 0001:0003B400      _hb_waBof
 0001:0003BDB4      _hb_waChildEnd
 0001:0003BDC4      _hb_waChildStart
 0001:0003C050      _hb_waClearFilter
 0001:0003C084      _hb_waClearLocate
 0001:0003BE00      _hb_waClearRel
 0001:0003B9F4      _hb_waClose
 0001:0003BA40      _hb_waCloseAux
 0001:0003C20C      _hb_waCompile
 0001:0003B67C      _hb_waCreateFields
 0001:0003B414      _hb_waEof
 0001:0003C254      _hb_waError
 0001:0003BC4C      _hb_waEval
 0001:0003C2BC      _hb_waEvalBlock
 0001:0003B7F4      _hb_waFieldCount
 0001:0003B808      _hb_waFieldInfo
 0001:0003B940      _hb_waFieldName
 0001:0003C118      _hb_waFilterText
 0001:0003B428      _hb_waFound
 0001:0003BAF0      _hb_waInfo
 0001:0003BB4C      _hb_waNewArea
 0001:0003BB74      _hb_waOrderCondition
 0001:0003BB1C      _hb_waOrderInfo
 0001:0003BE74      _hb_waRelArea
 0001:0003BEC0      _hb_waRelEval
 0001:0003BF78      _hb_waRelText
 0001:0003BBEC      _hb_waRelease
 0001:0003B988      _hb_waSetFieldExtent
 0001:0003C138      _hb_waSetFilter
 0001:0003C178      _hb_waSetLocate
 0001:0003BFE4      _hb_waSetRel
 0001:0003B43C      _hb_waSkip
 0001:0003B4BC      _hb_waSkipFilter
 0001:0003BC2C      _hb_waStructSize
 0001:0003BDD4      _hb_waSyncChildren
 0001:0003BC3C      _hb_waSysName
 0001:0003BD8C      _hb_waTrans
 0001:0003BDA0      _hb_waTransRec
 0001:0000CF44      _hb_xalloc
 0001:0000D120      _hb_xexit
 0001:0000D014      _hb_xfree
 0001:0000CF6C      _hb_xgrab
 0001:0000D044      _hb_xinit
 0001:0000D124      _hb_xquery
 0001:0000CFB0      _hb_xrealloc
 0001:0000D03C      _hb_xsize
 0001:0005B2CC      _isalnum
 0001:0005B2F8      _isalpha
 0001:0005B2E4      _isascii
 0001:0005A318      _isatty
 0001:0005B310      _iscntrl
 0001:0005B324      _isdigit
 0001:0005B338      _isgraph
 0001:0005B350      _islower
 0001:0005B364      _isprint
 0001:0005B37C      _ispunct
 0001:0005B390      _isspace
 0001:0005B3A4      _isupper
 0001:0005B3D0      _iswalnum
 0001:0005B3FC      _iswalpha
 0001:0005B3E8      _iswascii
 0001:0005B414      _iswcntrl
 0001:0005B428      _iswdigit
 0001:0005B43C      _iswgraph
 0001:0005B454      _iswlower
 0001:0005B468      _iswprint
 0001:0005B480      _iswpunct
 0001:0005B494      _iswspace
 0001:0005B4A8      _iswupper
 0001:0005B4BC      _iswxdigit
 0001:0005B3B8      _isxdigit
 0001:0005C748      _itoa
 0001:0006053C      _localtime
 0001:0005A320      _lock
 0001:0005C5D8      _log
 0001:0005C648      _log10
 0001:0005A4B0      _lseek
 0001:0001C480      _main
 0001:00056E68      _malloc
 0001:0005B6C0      _mblen
 0001:0005B884      _mbstowcs
 0001:0005B73C      _mbtowc
 0001:00057BC4      _memchr
 0001:00057E7C      _memcmp
 0001:00057BE4      _memcpy
 0001:00057C08      _memmove
 0001:00057C54      _memset
 0001:0005A54C      _open
 0001:0002A54C      _pcre_compile
 0001:0002830C      _pcre_copy_substring
 0001:0002CBA8      _pcre_exec
 0002:0000C164      _pcre_free
 0001:0002849C      _pcre_free_substring
 0001:00028424      _pcre_free_substring_list
 0001:00028A9C      _pcre_fullinfo
 0001:00028434      _pcre_get_substring
 0001:00028364      _pcre_get_substring_list
 0001:00028A38      _pcre_info
 0001:00028078      _pcre_maketables
 0002:0000C160      _pcre_malloc
 0001:0002894C      _pcre_study
 0001:00028A30      _pcre_version
 0001:0005C808      _pow
 0001:0005A55C      _printf
 0001:0005EB1C      _qsort
 0001:0005FE50      _raise
 0001:0005A580      _read
 0001:00056E88      _realloc
 0001:0002D0F0      _regcomp
 0001:0002D030      _regerror
 0001:0002D158      _regexec
 0001:0002D0DC      _regfree
 0003:000025F8      _s_HaveSetPrinterName
 0003:000023F8      _s_PrintFileName
 0003:000024F8      _s_PrinterName
 0001:0002136C      _s_argvize
 0002:0000BC2C      _s_cdpage
 0003:0000C6E0      _s_mouseLast
 0001:000212BC      _s_parametrize
 0001:0005A588      _setmode
 0001:0005A5F4      _setvbuf
 0001:0005FDF0      _signal
 0001:0005F25C      _spawnvp
 0001:0005A66C      _sprintf
 0001:0005DA5C      _sqrt
 0001:00057CF8      _strcat
 0001:00057D34      _strchr
 0001:00057EE8      _strdup
 0001:00057D88      _strlen
 0001:00057DE4      _strncat
 0001:00057E54      _strncmp
 0001:00057F1C      _strncpy
 0001:00057F6C      _strpbrk
 0001:00057F98      _strrchr
 0001:00057FC4      _strstr
 0001:0005DB28      _strtod
 0001:00058018      _strtok
 0001:0005A7D4      _tmpnam
 0001:0000D2CC      _tolower
 0001:0000D2DC      _toupper
 0001:0000D2EC      _towlower
 0001:0000D2FC      _towupper
 0001:000609D8      _tzset
 0001:0005C778      _ultoa
 0001:0005A360      _unlock
 0001:0005A808      _vfprintf
 0001:0005A694      _vsprintf
 0001:000580D0      _wcscpy
 0001:000580B8      _wcslen
 0001:0005B9EC      _wcstombs
 0001:0005B810      _wctomb
 0001:0005B218      _write
 0001:0004A73C      _yy_bytes_buffer
 0001:0004A700      _yy_create_buffer
 0001:0004A728      _yy_delete_buffer
 0001:0004A714      _yy_switch_to_buffer
 0003:00007380      _yyin
 0003:00007374      _yyleng
 0002:000165E8      _yytext

  Address         Publics by Value

 0001:00000000      @C1_0
 0001:00000000      __acrtused
 0001:00000059      __GetExceptDLLinfo
 0001:0000005E      __isDLL
 0001:00000066      __getHInstance
 0001:00000140      ___System__GetTls
 0001:00000140      @Sysinit@@GetTls$qqrv
 0001:00000150      @C2_0
 0001:00000150      @C2_2
 0001:0000016B      _HB_FUN_MAIN
 0001:00000184      _HB_FUN_GRAVARINFORMACOES
 0001:0000019D      _HB_FUN_IMPCUPOMATUAL
 0001:000001B6      _HB_FUN_PRECOCONVERTIDO
 0001:000001D0      @C3_2
 0001:000001D0      @C3_0
 0001:000001EE      _HB_FUN_LANCARECEBER
 0001:00000207      _HB_FUN_CANCELARECEBER
 0001:00000220      _HB_FUN_LANRECMOEDIV
 0001:00000239      _HB_FUN_FGRAVAMOEDA
 0001:00000252      _HB_FUN_LANCACUPOM
 0001:0000026B      _HB_FUN_LANCAEMCAIXA
 0001:00000284      _HB_FUN_CANCELACAIXA
 0001:0000029D      _HB_FUN_LANCAESTOQUE
 0001:000002B6      _HB_FUN_LANCAMONTAGEM
 0001:000002CF      _HB_FUN_RETORNAESTOQUE
 0001:000002E8      _HB_FUN_ANULACUPOM
 0001:00000301      _HB_FUN_ABREFILE
 0001:0000031A      _HB_FUN_VENDAFILE
 0001:00000333      _HB_FUN_NUMEROCUPOM
 0001:0000034C      _HB_FUN_ABREBASECUPOM
 0001:00000365      _HB_FUN_DATAEMISSAO
 0001:0000037E      _HB_FUN_AGUARDA
 0001:00000397      _HB_FUN_HORA
 0001:000003CC      _hb_vmDoInitClip
 0001:000003CC      @C22_0
 0001:000003FC      _hb_vmDoInitRdd
 0001:00000450      _hb_vmDoInitOle
 0001:00000480      _hb_vmInit
 0001:0000067C      _hb_vmQuit
 0001:0000078C      _hb_vmExecute
 0001:000065E0      _hb_vmDo
 0001:0000679C      _hb_vmSend
 0001:00006D08      _hb_vmEvalBlock
 0001:00006D30      _hb_vmEvalBlockV
 0001:00006D80      _hb_vmFunction
 0001:00007258      _hb_vmPush
 0001:00007278      _hb_vmPushNil
 0001:0000728C      _hb_vmPushLogical
 0001:000072A8      _hb_vmPushNumber
 0001:000072C4      _hb_vmPushNumType
 0001:00007370      _hb_vmPushInteger
 0001:00007394      _hb_vmPushLong
 0001:00007434      _hb_vmPushDouble
 0001:000075C0      _hb_vmPushDate
 0001:000075DC      _hb_vmPushPointer
 0001:000075F8      _hb_vmPushString
 0001:00007654      _hb_vmPushSymbol
 0001:00008238      _hb_vmProcessSymbols
 0001:00008474      _hb_vmLastModule
 0001:0000848C      _hb_vmExplicitStartup
 0001:00008638      _hb_vmFindModule
 0001:00008654      _hb_vmFindModuleByName
 0001:00008694      _hb_vmForceLink
 0001:0000869C      _HB_FUN_ERRORLEVEL
 0001:000086F0      _hb_vmRequestQuit
 0001:000086FC      _hb_vmRequestEndProc
 0001:00008708      _hb_vmRequestBreak
 0001:00008750      _hb_vmRequestQuery
 0001:00008758      _hb_vmRequestCancel
 0001:0000882C      _hb_vmRequestDebug
 0001:00008838      _hb_vmRequestReset
 0001:00008844      _HB_FUN_INVOKEDEBUG
 0001:00008870      _HB_FUN___VMVARSLIST
 0001:0000889C      _HB_FUN___VMVARSLEN
 0001:000088B4      _HB_FUN___VMVARSGET
 0001:000088DC      _HB_FUN___VMVARSSET
 0001:0000890C      _hb_vmIsLocalRef
 0001:00008950      _hb_vmIsStaticRef
 0001:0000895C      _hb_vmRegisterGlobals
 0001:000089AC      _hb_vmIsGlobalRef
 0001:000089B8      _HB_FUN___VMVARGLIST
 0001:000089E4      _HB_FUN___SETPROFILER
 0001:000089E8      _HB_FUN___TRACEPRGCALLS
 0001:00008A1C      _hb_vmProcessDllSymbols
 0001:00008AD8      _HB_FUN_HB_FUNCPTR
 0001:00008B90      _HB_FUN_HB_QWITH
 0001:00008BB4      _HB_FUN_HB_SETWITH
 0001:00008C70      _HB_FUN_HB_QSELF
 0001:00008D00      _HB_FUN___OPCOUNT
 0001:00008D14      _HB_FUN___OPGETPRF
 0001:00008D18      _HB_FUN_HB_SAVEBLOCK
 0001:00008DEC      _HB_FUN_HB_RESTOREBLOCK
 0001:00008FA0      _HB_FUN_HB_NOMOUSE
 0001:00008FA4      @C24_0
 0001:00008FA4      _MsgToNum
 0001:00009174      _hb_clsReleaseAll
 0001:000091BC      _hb_clsIsClassRef
 0001:00009860      _hb_clsIsParent
 0001:00009928      _hb_objGetClsName
 0001:000099E0      _hb_objGetRealCls
 0001:00009B2C      _hb_objGetRealClsName
 0001:00009C04      _hb_objGetMethod
 0001:00009C20      _hb_objGetMthd
 0001:00009E0C      _hb_clsHasMsg
 0001:00009F08      _hb_objGetpMethod
 0001:00009FD0      _hb_objHasMsg
 0001:0000A004      _hb_clsAddMsg
 0001:0000A948      _HB_FUN___CLSADDMSG
 0001:0000AAB4      _HB_FUN___CLSNEW
 0001:0000B1C8      _HB_FUN___CLSDELMSG
 0001:0000B338      _HB_FUN___CLSINST
 0001:0000B644      _HB_FUN___CLSMODMSG
 0001:0000B850      _HB_FUN___CLSMSGASSIGNED
 0001:0000B960      _HB_FUN___OBJGETCLSNAME
 0001:0000B9E8      _HB_FUN___OBJHASMSG
 0001:0000BA6C      _HB_FUN___OBJCLONE
 0001:0000BAB8      _hb_objSendMsg
 0001:0000BB2C      _HB_FUN___OBJSENDMSG
 0001:0000BC34      _HB_FUN___CLSINSTSUPER
 0001:0000BD5C      _HB_FUN___CLS_CNTCLSDATA
 0001:0000BDAC      _HB_FUN___CLS_CNTDATA
 0001:0000BDE4      _HB_FUN___CLS_DECDATA
 0001:0000BE1C      _HB_FUN___CLS_INCDATA
 0001:0000BE5C      _HB_FUN___CLASSNAME
 0001:0000BE64      _HB_FUN___CLASSSEL
 0001:0000BF34      _HB_FUN___GETMESSAGE
 0001:0000BF60      _HB_FUN___CLSPARENT
 0001:0000BF98      _HB_FUN___SENDER
 0001:0000BFFC      _HB_FUN___CLASSH
 0001:0000C044      _HB_FUN___EVAL
 0001:0000C634      _hb___msgGetClsData
 0001:0000C67C      _hb___msgSetClsData
 0001:0000C6F4      _hb___msgGetShrData
 0001:0000C738      _hb___msgSetShrData
 0001:0000C7AC      _hb___msgGetData
 0001:0000C810      _hb___msgSetData
 0001:0000C880      _hb_clsClassesArray
 0001:0000C888      _hb_clsMaxClasses
 0001:0000C890      _HB_FUN___CLS_PARAM
 0001:0000C944      _HB_FUN___CLS_PAR00
 0001:0000C9C4      _HB_FUN___GETMSGPRF
 0001:0000C9C8      _hb_mthAddTime
 0001:0000C9D0      _HB_FUN___CLSGETPROPERTIES
 0001:0000CA8C      _HB_FUN___CLSGETPROPERTIESANDVALUES
 0001:0000CBE4      _HB_FUN___CLSGETIVARNAMESANDVALUES
 0001:0000CD9C      _hb_clsSymbolFromFunction
 0001:0000CE14      _HB_FUN_HB_OBJMSGPTR
 0001:0000CE8C      _hb_clsGetHandleFromName
 0001:0000CEE4      _HB_FUN___CLSGETHANDLEFROMNAME
 0001:0000CF04      _hb_clsSetModule
 0001:0000CF44      _hb_xalloc
 0001:0000CF44      @C26_0
 0001:0000CF6C      _hb_xgrab
 0001:0000CFB0      _hb_xrealloc
 0001:0000D014      _hb_xfree
 0001:0000D03C      _hb_xsize
 0001:0000D044      _hb_xinit
 0001:0000D048      _hb_mem2str
 0001:0000D120      _hb_xexit
 0001:0000D124      _hb_xquery
 0001:0000D2A8      _HB_FUN_MEMORY
 0001:0000D2C8      _HB_FUN_HB_FM_NOSTAT
 0001:0000D2CC      @C30_0
 0001:0000D2CC      _tolower
 0001:0000D2DC      _toupper
 0001:0000D2EC      _towlower
 0001:0000D2FC      _towupper
 0001:0000D30C      __get_handle
 0001:0000D354      __dup_handle
 0001:0000D3BC      __free_handle
 0001:0000D478      __init_handles
 0001:0000D5A8      @C46_0
 0001:0000D5A8      _HB_FUN_HB_LANG_EN
 0001:0000D5AC      @C46_2
 0001:0000D5B8      @C104_0
 0001:0000D5B8      _hb_arrayNew
 0001:0000D688      _hb_arrayAdd
 0001:0000D6E0      _hb_arrayAddForward
 0001:0000D738      _hb_arrayLen
 0001:0000D75C      _hb_arrayIsObject
 0001:0000D788      _hb_arraySize
 0001:0000D9B4      _hb_arrayDel
 0001:0000DA20      _hb_arrayIns
 0001:0000DB18      _hb_arraySet
 0001:0000DB84      _hb_arraySetForward
 0001:0000DBF0      _hb_arrayGet
 0001:0000DCB0      _hb_arrayGetByRef
 0001:0000DE38      _hb_arrayGetDS
 0001:0000DE8C      _hb_arrayGetDL
 0001:0000DED8      _hb_arrayGetItemPtr
 0001:0000DF18      _hb_arrayGetL
 0001:0000DF5C      _hb_arrayGetNI
 0001:0000DFA0      _hb_arrayGetNL
 0001:0000DFE4      _hb_arrayGetND
 0001:0000E038      _hb_arrayCopyC
 0001:0000E088      _hb_arrayGetC
 0001:0000E0CC      _hb_arrayGetCPtr
 0001:0000E114      _hb_arrayGetCLen
 0001:0000E158      _hb_arrayGetType
 0001:0000E19C      _hb_arrayLast
 0001:0000E298      _hb_arrayFill
 0001:0000E310      _hb_arrayScan
 0001:0000E604      _hb_arrayEval
 0001:0000E6F8      _hb_arrayReleaseBase
 0001:0000E7DC      _hb_arrayRelease
 0001:0000E8BC      _hb_arrayCopy
 0001:0000E9BC      _hb_arrayClone
 0001:0000EB74      _hb_arrayFromStack
 0001:0000EC38      _hb_arrayFromParams
 0001:0000ED18      _hb_arrayFromParamsLocked
 0001:0000EDFC      _hb_arrayReleaseGarbage
 0001:0000EF94      _hb_arrayRegisterHolder
 0001:0000EFD4      _hb_arrayResetHolder
 0001:0000F074      _hb_arrayReleaseHolder
 0001:0000F128      _hb_arrayReleaseHolderGarbage
 0001:0000F1D0      _hb_arrayGetNLL
 0001:0000F230      @C106_0
 0001:0000F2AC      _HB_FUN_ARRAY
 0001:0000F358      _HB_FUN_AADD
 0001:0000F444      _HB_FUN_HB_ARRAYID
 0001:0000F488      _HB_FUN_ASIZE
 0001:0000F548      _HB_FUN_ATAIL
 0001:0000F56C      _HB_FUN_AINS
 0001:0000F670      _HB_FUN_ADEL
 0001:0000F748      _HB_FUN_AFILL
 0001:0000F964      _HB_FUN_ASCAN
 0001:0000FA18      _HB_FUN_AEVAL
 0001:0000FB38      _HB_FUN_ACOPY
 0001:0000FC58      _HB_FUN_ACLONE
 0001:0000FC94      _HB_FUN_HB_APARAMS
 0001:0000FCC4      _HB_FUN_HB_AEXPRESSIONS
 0001:0000FEC4      _HB_FUN_HB_ATOKENS
 0001:0000FFCC      _SizeOfCStructure
 0001:00010294      _HB_FUN_HB_SIZEOFCSTRUCTURE
 0001:00010310      _ArrayToStructure
 0001:00011618      _HB_FUN_HB_ARRAYTOSTRUCTURE
 0001:000116B8      _StructureToArray
 0001:00011F38      _HB_FUN_HB_STRUCTURETOARRAY
 0001:00012000      @C108_0
 0001:00012688      _hb_arraySort
 0001:0001271C      _HB_FUN_ASORT
 0001:000127B4      @C110_0
 0001:000127B4      _HB_FUN_BREAK
 0001:000127CC      @C113_0
 0001:000127CC      _hb_cmdargInit
 0001:000127E4      _hb_cmdargARGC
 0001:000127EC      _hb_cmdargARGV
 0001:000127F4      _hb_cmdargIsInternal
 0001:000129E4      _hb_cmdargCheck
 0001:00012A00      _hb_cmdargString
 0001:00012A14      _hb_cmdargNum
 0001:00012A4C      _HB_FUN_HB_ARGCHECK
 0001:00012A90      _HB_FUN_HB_ARGSTRING
 0001:00012AE4      _HB_FUN_HB_ARGC
 0001:00012AFC      _HB_FUN_HB_ARGV
 0001:00012B54      _hb_cmdargProcessVM
 0001:00012C48      @C115_0
 0001:00012C48      _hb_codeblockNew
 0001:00012EA8      _hb_codeblockMacroNew
 0001:00012F10      _hb_codeblockDelete
 0001:00012FB8      _hb_codeblockDeleteGarbage
 0001:00013038      _hb_codeblockEvaluate
 0001:00013070      _hb_codeblockGetVar
 0001:00013090      _hb_codeblockGetRef
 0001:000130AC      @C123_0
 0001:000130AC      _hb_dynsymLog
 0001:000130E0      _hb_symbolNew
 0001:00013140      _hb_dynsymNew
 0001:00013280      _hb_dynsymGet
 0001:00013334      _hb_dynsymGetCase
 0001:00013390      _hb_dynsymFindName
 0001:000133F4      _hb_dynsymFind
 0001:000134DC      _hb_dynsymEval
 0001:00013518      _hb_dynsymRelease
 0001:00013578      _hb_dynsymFindFromFunction
 0001:000135A8      _hb_dynsymPos
 0001:000135CC      _HB_FUN___DYNSCOUNT
 0001:000135E4      _HB_FUN___DYNSGETNAME
 0001:00013630      _HB_FUN___DYNSGETINDEX
 0001:0001366C      _HB_FUN___DYNSISFUN
 0001:000136BC      _HB_FUN___DYNSGETPRF
 0001:00013744      _hb_errForceLink
 0001:00013744      @C125_0
 0001:0001374C      _HB_FUN___ERRINHANDLER
 0001:00013760      _HB_FUN_ERRORBLOCK
 0001:000137B0      _hb_errorHandler
 0001:000137D0      _HB_FUN_DOSERROR
 0001:00013804      _hb_errInit
 0001:00013814      _hb_errExit
 0001:0001382C      _hb_errNew
 0001:00013900      _hb_errLaunch
 0001:00013AAC      _hb_errLaunchSubst
 0001:00013BBC      _hb_errRelease
 0001:00013BCC      _hb_errGetDescription
 0001:00013C04      _hb_errPutDescription
 0001:00013C50      _hb_errGetFileName
 0001:00013C88      _hb_errPutFileName
 0001:00013CE4      _hb_errGetGenCode
 0001:00013D1C      _hb_errPutGenCode
 0001:00013D58      _hb_errGetOperation
 0001:00013D90      _hb_errPutOperation
 0001:00013DD8      _hb_errGetOsCode
 0001:00013E10      _hb_errPutOsCode
 0001:00013E4C      _hb_errGetSeverity
 0001:00013E84      _hb_errPutSeverity
 0001:00013EC0      _hb_errGetSubCode
 0001:00013EF8      _hb_errPutSubCode
 0001:00013F34      _hb_errGetSubSystem
 0001:00013F6C      _hb_errPutSubSystem
 0001:00013FB4      _hb_errGetProcName
 0001:00013FEC      _hb_errPutProcName
 0001:00014034      _hb_errGetProcLine
 0001:0001406C      _hb_errPutProcLine
 0001:000140A8      _hb_errPutModuleName
 0001:000140F0      _hb_errGetTries
 0001:00014128      _hb_errPutTries
 0001:00014164      _hb_errGetFlags
 0001:0001421C      _hb_errPutFlags
 0001:000142E0      _hb_errPutArgs
 0001:00014360      _hb_errRT_New
 0001:00014444      _hb_errRT_New_Subst
 0001:0001452C      _HB_FUN___ERRRT_BASE
 0001:00014578      _HB_FUN___ERRRT_SBASE
 0001:000145C4      _hb_errRT_BASE
 0001:000146DC      _hb_errRT_BASE_Ext1
 0001:00014794      _hb_errRT_BASE_Subst
 0001:00014844      _hb_errRT_BASE_SubstR
 0001:0001496C      _hb_errRT_TERM
 0001:000149B4      _hb_errRT_DBCMD
 0001:000149F4      _hb_errRT_TOOLS
 0001:00014A34      _hb_errInternal
 0001:00014B5C      _hb_stackPop
 0001:00014B5C      @C127_0
 0001:00014BEC      _hb_stackDec
 0001:00014C14      _hb_stackPush
 0001:00014CF4      _hb_stackInit
 0001:00014D40      _hb_stackFree
 0001:00014D7C      _hb_stackRemove
 0001:00014DA0      _hb_stackNewFrame
 0001:00014E30      _hb_stackOldFrame
 0001:00014E60      _hb_stackTopOffset
 0001:00014E78      _hb_stackBaseOffset
 0001:00014E90      _hb_stackItem
 0001:00014EBC      _hb_stackItemFromTop
 0001:00014EE8      _hb_stackItemFromBase
 0001:00014F30      _hb_stackTopItem
 0001:00014F38      _hb_stackBaseItem
 0001:00014F40      _hb_stackSelfItem
 0001:00014F4C      _hb_stackDispLocal
 0001:00015184      _hb_stackDispCall
 0001:00015238      _hb_evalNew
 0001:00015238      @C129_0
 0001:00015268      _hb_evalPutParam
 0001:00015298      _hb_evalLaunch
 0001:0001538C      _hb_evalRelease
 0001:000153CC      _hb_itemDo
 0001:00015544      _hb_itemDoC
 0001:000155C4      _hb_evalBlock0
 0001:000155E8      _hb_evalBlock1
 0001:00015614      _hb_evalBlock
 0001:00015654      _HB_FUN_HB_EXECFROMARRAY
 0001:000159FC      _hb_execFromArray
 0001:00015BF8      _HB_FUN_HB_EXEC
 0001:00015D74      _hb_param
 0001:00015D74      @C133_0
 0001:00015E28      _hb_paramError
 0001:00015E50      _hb_extIsArray
 0001:00015EF0      _hb_parc
 0001:00015FC4      _hb_parclen
 0001:00016094      _hb_parcsiz
 0001:00016164      _hb_pards
 0001:00016250      _hb_pardsbuff
 0001:00016334      _hb_parl
 0001:000164BC      _hb_parnd
 0001:000165B8      _hb_parni
 0001:000166B0      _hb_parnl
 0001:000167B0      _hb_parptr
 0001:0001689C      _hb_parinfa
 0001:000168E0      _hb_parinfo
 0001:000169E4      _hb_pcount
 0001:00016A14      _hb_ret
 0001:00016A74      _hb_reta
 0001:00016A8C      _hb_retc
 0001:00016AA4      _hb_retclen
 0001:00016AC0      _hb_retds
 0001:00016AD8      _hb_retd
 0001:00016AF8      _hb_retdl
 0001:00016B10      _hb_retl
 0001:00016B34      _hb_retnd
 0001:00016B4C      _hb_retni
 0001:00016B64      _hb_retnl
 0001:00016B7C      _hb_retnlen
 0001:00016B9C      _hb_retndlen
 0001:00016BBC      _hb_retnilen
 0001:00016BD8      _hb_retnllen
 0001:00016BF4      _hb_retptr
 0001:00016C0C      _hb_storc
 0001:00016CE0      _hb_storclen
 0001:00016DBC      _hb_stords
 0001:00016E90      _hb_storl
 0001:00016F7C      _hb_storni
 0001:00017050      _hb_stornl
 0001:00017124      _hb_stornd
 0001:000171FC      _hb_stornll
 0001:000172D4      _hb_parnll
 0001:000173C4      _hb_retnlllen
 0001:000173E0      @C136_0
 0001:0001743C      _hb_gcAlloc
 0001:0001748C      _hb_gcFree
 0001:00017508      _hb_gcGripGet
 0001:0001757C      _hb_gcGripDrop
 0001:00017608      _hb_gcLock
 0001:00017650      _hb_gcUnlock
 0001:000176A4      _hb_gcItemRef
 0001:00017798      _hb_gcCollect
 0001:000177A0      _hb_gcCollectAll
 0001:00017930      _hb_gcReleaseAll
 0001:000179EC      _hb_gcInit
 0001:000179F0      _hb_gcExit
 0001:000179F4      _HB_FUN_HB_GCSTEP
 0001:000179FC      _HB_FUN_HB_GCALL
 0001:00017A18      _hb_i18n_scan_table
 0001:00017A18      @C138_0
 0001:00017B1C      _hb_i18n_build_table_filename
 0001:00017BC0      _hb_i18n_read_table_header
 0001:00017D00      _hb_i18n_write_table_header
 0001:00017DD4      _hb_i18n_read_table
 0001:00017F48      _hb_i18n_write_table
 0001:00018034      _hb_i18n_load_language
 0001:00018154      _HB_FUN_HB_I18NLOADTABLE
 0001:000182A8      _HB_FUN_HB_I18NSORTTABLE
 0001:00018404      _HB_FUN_HB_I18NSAVETABLE
 0001:00018560      _HB_FUN_I18N
 0001:000185E0      _HB_FUN_HB_I18NSETPATH
 0001:00018638      _HB_FUN_HB_I18NGETPATH
 0001:0001864C      _HB_FUN_HB_I18NSETLANGUAGE
 0001:00018730      _HB_FUN_HB_I18NGETLANGUAGE
 0001:00018744      _HB_FUN_HB_I18NGETLANGUAGENAME
 0001:00018758      _HB_FUN_HB_I18NGETBASELANGUAGE
 0001:0001876C      _HB_FUN_HB_I18NGETBASELANGUAGENAME
 0001:00018780      _HB_FUN_HB_I18NSETBASELANGUAGE
 0001:00018840      _hb_i18nInit
 0001:00018914      _hb_i18nExit
 0001:00018928      _HB_FUN_HB_HFIND
 0001:00018A0C      _HB_FUN___QUIT
 0001:00018A0C      @C143_0
 0001:00018A14      _hb_itemNew
 0001:00018A14      @C147_0
 0001:00018A24      _hb_itemParam
 0001:00018A58      _hb_itemParamPtr
 0001:00018A70      _hb_itemPCount
 0001:00018AA0      _hb_itemRelease
 0001:00018ABC      _hb_itemArrayNew
 0001:00018ADC      _hb_itemArrayGet
 0001:00018B00      _hb_itemArrayPut
 0001:00018B20      _hb_itemSetCMemo
 0001:00018B44      _hb_itemGetC
 0001:00018B90      _hb_itemGetCPtr
 0001:00018BB8      _hb_itemGetCLen
 0001:00018BDC      _hb_itemCopyC
 0001:00018C20      _hb_itemFreeC
 0001:00018C3C      _hb_itemGetDS
 0001:00018C74      _hb_itemGetDL
 0001:00018C98      _hb_itemGetL
 0001:00018D10      _hb_itemGetND
 0001:00018D90      _hb_itemGetNI
 0001:00018E00      _hb_itemGetNL
 0001:00018E70      _hb_itemGetPtr
 0001:00018E84      _hb_itemPutDS
 0001:00018F00      _hb_itemPutD
 0001:00018F84      _hb_itemPutDL
 0001:00018FF8      _hb_itemPutL
 0001:0001906C      _hb_itemPutND
 0001:00019124      _hb_itemPutNI
 0001:000191A0      _hb_itemPutNL
 0001:0001923C      _hb_itemPutNLen
 0001:00019330      _hb_itemPutNDLen
 0001:00019418      _hb_itemPutNILen
 0001:000194A4      _hb_itemPutNLLen
 0001:00019530      _hb_itemGetNLen
 0001:000195D8      _hb_itemSize
 0001:00019608      _hb_itemType
 0001:0001961C      _hb_itemTypeStr
 0001:000196C4      _hb_itemUnRef
 0001:000196DC      _hb_itemUnRefOnce
 0001:00019760      _hb_itemStrCmp
 0001:00019890      _hb_itemStr
 0001:00019C78      _hb_itemString
 0001:00019DC8      _hb_itemPadConv
 0001:00019F2C      _hb_itemValToStr
 0001:00019F70      _hb_itemGetNLL
 0001:00019FEC      _hb_itemPutNLL
 0001:0001A06C      _hb_itemPutNLLLen
 0001:0001A0FC      _hb_itemPushForward
 0001:0001A0FC      @C149_0
 0001:0001A11C      _hb_itemForwardValue
 0001:0001A1E0      _hb_itemReturn
 0001:0001A200      _hb_itemReturnCopy
 0001:0001A220      _hb_itemReleaseString
 0001:0001A258      _hb_itemClear
 0001:0001A2E0      _hb_itemSwap
 0001:0001A368      _hb_itemCopy
 0001:0001A478      _hb_itemPutC
 0001:0001A584      _hb_itemPutCL
 0001:0001A67C      _hb_itemPutCPtr
 0001:0001A714      _hb_itemPutCRaw
 0001:0001A7A8      _hb_itemPutCRawStatic
 0001:0001A828      _hb_itemPutCStatic
 0001:0001A8B4      _hb_itemPutCLStatic
 0001:0001A934      _hb_itemPutPtr
 0001:0001A9AC      _hb_itemPutPtrGC
 0001:0001AA28      _hb_itemFastClear
 0001:0001AA90      _hb_itemPushStaticString
 0001:0001AABC      _hb_retcAdopt
 0001:0001AB2C      _hb_retclenAdopt
 0001:0001ABA8      _hb_retclenAdoptRaw
 0001:0001AC10      _hb_retclenAdoptRawStatic
 0001:0001AC7C      _hb_retcAdoptStatic
 0001:0001ACD8      _hb_retclenAdoptStatic
 0001:0001AD30      _hb_itemParamId
 0001:0001AD88      @C151_0
 0001:0001ADFC      _hb_macroDelete
 0001:0001AED4      _hb_macroRun
 0001:0001AF70      _hb_macroIsIdent
 0001:0001AFEC      _hb_macroTextSubst
 0001:0001B210      _hb_macroGetValue
 0001:0001B324      _hb_macroSetValue
 0001:0001B3D0      _hb_macroPopAliasedValue
 0001:0001B3EC      _hb_macroPushAliasedValue
 0001:0001B57C      _hb_macroExpandString
 0001:0001B5A8      _hb_macroCompile
 0001:0001B600      _hb_macroPushSymbol
 0001:0001B688      _hb_macroTextValue
 0001:0001B6C8      _hb_macroGetType
 0001:0001B7C8      _hb_macroSetMacro
 0001:0001B7F4      _HB_FUN_HB_SETMACRO
 0001:0001B99C      _hb_compLocalVarGetPos
 0001:0001B9FC      _hb_compGenJump
 0001:0001BA44      _hb_compGenJumpFalse
 0001:0001BA8C      _hb_compGenJumpThere
 0001:0001BAD4      _hb_compGenJumpHere
 0001:0001BAF0      _hb_compGenJumpTrue
 0001:0001BC00      _hb_compMemvarGenPCode
 0001:0001BC58      _hb_compGenPushSymbol
 0001:0001BCD4      _hb_compGenPushLong
 0001:0001BD50      _hb_compGenMessage
 0001:0001BD84      _hb_compGenMessageData
 0001:0001BDD0      _hb_compGenPopVar
 0001:0001BE1C      _hb_compGenPopAliasedVar
 0001:0001BF3C      _hb_compGenPushVar
 0001:0001BF88      _hb_compGenPushVarRef
 0001:0001BFD4      _hb_compGenPushMemVarRef
 0001:0001BFFC      _hb_compGenPushAliasedVar
 0001:0001C11C      _hb_compGenPushLogical
 0001:0001C144      _hb_compGenPushDouble
 0001:0001C184      _hb_compGenPushFunCall
 0001:0001C1C0      _hb_compGenPushString
 0001:0001C1F8      _hb_compGenPCode1
 0001:0001C238      _hb_compGenPCode2
 0001:0001C284      _hb_compGenPCode3
 0001:0001C2E0      _hb_compGenPCode4
 0001:0001C348      _hb_compGenPCodeN
 0001:0001C39C      _hb_macroError
 0001:0001C3B0      _hb_compCodeBlockStart
 0001:0001C3F0      _hb_compCodeBlockEnd
 0001:0001C480      _main
 0001:0001C480      @C155_0
 0001:0001C4A4      @C159_0
 0001:0001C4A4      _hb_memvarsInit
 0001:0001C524      _hb_memvarsRelease
 0001:0001C608      _hb_memvarValueBaseAddress
 0001:0001C610      _hb_memvarValueNew
 0001:0001C81C      _hb_memvarGetPrivatesBase
 0001:0001C830      _hb_memvarSetPrivatesBase
 0001:0001C88C      _hb_memvarValueIncRef
 0001:0001C908      _hb_memvarValueDecRef
 0001:0001C984      _hb_memvarValueDecGarbageRef
 0001:0001CA30      _hb_memvarSetValue
 0001:0001CAA4      _hb_memvarGet
 0001:0001CB10      _hb_memvarGetValue
 0001:0001CB84      _hb_memvarGetRefer
 0001:0001CCC0      _hb_memvarNewParameter
 0001:0001CCDC      _hb_memvarGetStrValuePtr
 0001:0001CD48      _hb_memvarCreateFromItem
 0001:0001D120      _hb_memvarScope
 0001:0001D1F0      _hb_memvarReleasePublic
 0001:0001D31C      _HB_FUN___MVPUBLIC
 0001:0001D458      _HB_FUN___MVPRIVATE
 0001:0001D58C      _HB_FUN___MVXRELEASE
 0001:0001D6B0      _HB_FUN___MVRELEASE
 0001:0001D728      _HB_FUN___MVSCOPE
 0001:0001D790      _HB_FUN___MVCLEAR
 0001:0001D7A0      _HB_FUN___MVDBGINFO
 0001:0001D8A0      _HB_FUN___MVEXIST
 0001:0001D8E8      _HB_FUN___MVGET
 0001:0001D9CC      _HB_FUN___MVPUT
 0001:0001DCD8      _HB_FUN___MVSAVE
 0001:0001DEA4      _HB_FUN___MVRESTORE
 0001:0001E254      _hb_memvarsIsMemvarRef
 0001:0001E290      _hb_memvarGetVarHandle
 0001:0001E2AC      _hb_memvarGetValueByHandle
 0001:0001E2D0      @C163_0
 0001:0001E2D0      _HB_FUN_PCOUNT
 0001:0001E30C      _HB_FUN_METHODNAME
 0001:0001E30C      @C165_0
 0001:0001E344      _HB_FUN_PROCNAME
 0001:0001E37C      _HB_FUN_PROCLINE
 0001:0001E3B4      _HB_FUN_PROCFILE
 0001:0001E3E8      _hb_procinfo
 0001:0001E7C0      @C173_0
 0001:0001E7C0      @C173_2
 0001:0001E7D8      _HB_FUN_CLIPPER520
 0001:0001E7F0      _HB_FUN_CLIPPER530
 0001:0001E808      _HB_FUN_CLIPINIT
 0001:0001E820      _HB_FUN___SETHELPK
 0001:0001E838      _HB_FUN_SYSINIT
 0001:0001E850      @C181_0
 0001:0001E850      _HB_FUN_AT
 0001:0001E94C      _HB_FUN_DISPBOX
 0001:0001E94C      @C187_0
 0001:0001EAB8      @C189_0
 0001:0001EB0C      _hb_cdpRegister
 0001:0001EED4      _hb_cdpFind
 0001:0001EEF8      _hb_cdpSelect
 0001:0001EF10      _hb_cdpSelectID
 0001:0001EF34      _hb_cdpTranslate
 0001:0001EFC0      _hb_cdpnTranslate
 0001:0001F064      _hb_cdpchrcmp
 0001:0001F0DC      _hb_cdpcmp
 0001:0001F338      _hb_cdpReleaseAll
 0001:0001F3A4      _HB_FUN_HB_SETCODEPAGE
 0001:0001F3DC      _HB_FUN_HB_TRANSLATE
 0001:0001F490      @C189_3
 0001:0001F49C      @C191_0
 0001:0001F49C      _HB_FUN_CHR
 0001:0001F4F4      _HB_FUN_ASC
 0001:0001F564      _hb_conInit
 0001:0001F564      @C195_0
 0001:0001F640      _hb_conRelease
 0001:0001F6D4      _hb_conNewLine
 0001:0001F6DC      _HB_FUN_HB_OSNEWLINE
 0001:0001F740      _hb_conOutStd
 0001:0001F794      _hb_conOutErr
 0001:0001F7E8      _hb_conOutAlt
 0001:0001F900      _HB_FUN_OUTSTD
 0001:0001F964      _HB_FUN_OUTERR
 0001:0001F9C8      _HB_FUN_QQOUT
 0001:0001FA2C      _HB_FUN_QOUT
 0001:0001FA9C      _HB_FUN___EJECT
 0001:0001FAFC      _HB_FUN_PROW
 0001:0001FB14      _HB_FUN_PCOL
 0001:0001FC48      _HB_FUN_DEVPOS
 0001:0001FC84      _HB_FUN_SETPRC
 0001:0001FCC4      _HB_FUN_DEVOUT
 0001:0001FD88      _HB_FUN_DISPOUT
 0001:0001FE78      _HB_FUN_DISPOUTAT
 0001:0001FF8C      _HB_FUN_HBCONSOLELOCK
 0001:0001FF90      _HB_FUN_HBCONSOLEUNLOCK
 0001:0001FF94      _hb_dateEncode
 0001:0001FF94      @C201_0
 0001:000200A4      _hb_dateDecode
 0001:00020194      _hb_dateStrPut
 0001:0002026C      _hb_dateStrGet
 0001:00020320      _hb_dateDecStr
 0001:00020364      _hb_dateEncStr
 0001:0002039C      _hb_dateFormat
 0001:00020694      _hb_dateDOW
 0001:000206FC      _hb_dateToday
 0001:0002072C      _hb_dateTimeStr
 0001:00020760      @C203_0
 0001:00020760      _HB_FUN_CTOD
 0001:00020A30      _HB_FUN_DTOC
 0001:00020A9C      _HB_FUN_DTOS
 0001:00020AF4      _HB_FUN_HB_STOD
 0001:00020B34      _HB_FUN_YEAR
 0001:00020BA8      _HB_FUN_MONTH
 0001:00020C1C      _HB_FUN_DAY
 0001:00020C90      _HB_FUN_TIME
 0001:00020CB4      _HB_FUN_DATE
 0001:00020CF0      _HB_FUN_DOW
 0001:00020D88      @C205_0
 0001:00020D88      _HB_FUN_STOD
 0001:00020DC8      _HB_FUN_EMPTY
 0001:00020DC8      @C219_0
 0001:00020FE8      @C221_0
 0001:00020FE8      _hb_fsFile
 0001:00021044      _HB_FUN_FILE
 0001:00021044      @C223_0
 0001:00021094      @C225_0
 0001:000211E0      _hb_filecase
 0001:000212A4      _hb_fsPOpen
 0001:000212BC      _s_parametrize
 0001:0002136C      _s_argvize
 0001:000213A8      _hb_fsOpenProcess
 0001:000216CC      _hb_fsProcessValue
 0001:00021704      _hb_fsCloseProcess
 0001:00021774      _hb_fsOpen
 0001:000217C4      _hb_fsCreate
 0001:0002182C      _hb_fsCreateEx
 0001:000218A4      _hb_fsClose
 0001:000218D8      _hb_fsSetDevMode
 0001:00021928      _hb_fsRead
 0001:00021968      _hb_fsWrite
 0001:000219CC      _hb_fsReadLarge
 0001:00021A00      _hb_fsWriteLarge
 0001:00021A5C      _hb_fsSeek
 0001:00021AD0      _hb_fsTell
 0001:00021B00      _hb_fsDelete
 0001:00021B30      _hb_fsRename
 0001:00021B64      _hb_fsLock
 0001:00021BD4      _hb_fsCommit
 0001:00021BFC      _hb_fsMkDir
 0001:00021C2C      _hb_fsChDir
 0001:00021C5C      _hb_fsRmDir
 0001:00021C8C      _hb_fsCurDir
 0001:00021CB0      _hb_fsCurDirBuff
 0001:00021D44      _hb_fsChDrv
 0001:00021DA8      _hb_fsIsDrv
 0001:00021E0C      _hb_fsIsDevice
 0001:00021E3C      _hb_fsCurDrv
 0001:00021E6C      _hb_fsExtOpen
 0001:00021E84      _hb_fsEof
 0001:00021E9C      _hb_fsCurDirBuffEx
 0001:00021F30      _GnuErrtoDosErr
 0001:00021F38      _hb_fsError
 0001:00021F40      _hb_fsOsError
 0001:00021F48      _hb_fsSetError
 0001:00021F5C      @C233_0
 0001:00021F7C      _hb_fsCreateTemp
 0001:00021FD8      _HB_FUN_HB_FTEMPCREATE
 0001:0002203C      @C237_0
 0001:0002203C      _HB_FUN_DISPBEGIN
 0001:00022044      _HB_FUN_DISPEND
 0001:0002204C      _HB_FUN_DISPCOUNT
 0001:00022064      _HB_FUN_HB_GT_VERSION
 0001:00022078      @C239_0
 0001:00022078      _hb_gtInit
 0001:00022148      _hb_gtExit
 0001:0002217C      _hb_gtExtendedKeySupport
 0001:00022184      _hb_gtAdjustPos
 0001:000221C4      _hb_gtBox
 0001:000222E4      _hb_gtBoxD
 0001:00022394      _hb_gtBoxS
 0001:00022444      _hb_gtColorSelect
 0001:00022464      _hb_gtDispBegin
 0001:00022480      _hb_gtDispCount
 0001:00022488      _hb_gtDispEnd
 0001:000224A4      _hb_gtPreExt
 0001:000224F4      _hb_gtPostExt
 0001:0002253C      _hb_gtGetColorStr
 0001:00022648      _hb_gtColorToN
 0001:000227A0      _hb_gtSetColorStr
 0001:00022B1C      _hb_gtGetCursor
 0001:00022B30      _hb_gtSetCursor
 0001:00022B88      _hb_gtGetPos
 0001:00022BF0      _hb_gtSetPos
 0001:00022C80      _hb_gtSetPosContext
 0001:00022D10      _hb_gtIsColor
 0001:00022D18      _hb_gtMaxCol
 0001:00022D24      _hb_gtMaxRow
 0001:00022D30      _hb_gtRectSize
 0001:00022D58      _hb_gtRepChar
 0001:00022D8C      _hb_gtRest
 0001:00022DB4      _hb_gtSave
 0001:00022DDC      _hb_gtScrDim
 0001:00022E08      _hb_gtGetBlink
 0001:00022E1C      _hb_gtSetBlink
 0001:00022E30      _hb_gtSetMode
 0001:00022E64      _hb_gtSetSnowFlag
 0001:00022E6C      _hb_gtWrite
 0001:00022F0C      _hb_gtWriteAt
 0001:00022F88      _hb_gtWriteCon
 0001:0002319C      _hb_gtScroll
 0001:000231DC      _hb_gtDrawShadow
 0001:00023278      _hb_gtTone
 0001:00023294      _hb_gtVersion
 0001:0002329C      _hb_gtSuspend
 0001:000232D0      _hb_gtResume
 0001:00023300      _hb_gtIndexedColor
 0001:00023310      _hb_gtCurrentColor
 0001:00023324      _WintoDosError
 0001:00023324      @C257_0
 0001:00023370      _GetOldesFile
 0001:00023444      _hb_fsAttrFromRaw
 0001:000234D8      _hb_fsAttrToRaw
 0001:0002357C      _hb_fsAttrEncode
 0001:00023698      _hb_fsAttrDecode
 0001:000238E8      _hb_fsFindFirst
 0001:00023A8C      _hb_fsFindNext
 0001:00023B14      _hb_fsFindClose
 0001:00023B48      @C277_0
 0001:00023B50      _hb_idleState
 0001:00023C08      _hb_idleReset
 0001:00023C2C      _hb_idleShutDown
 0001:00023C78      _HB_FUN_HB_IDLESTATE
 0001:00023CA0      _HB_FUN_HB_IDLEADD
 0001:00023D30      _HB_FUN_HB_IDLEDEL
 0001:00023E2C      @C279_0
 0001:00023F20      _hb_inkey
 0001:00023FDC      _hb_inkeyLast
 0001:00023FFC      _hb_setInkeyLast
 0001:00024010      _hb_inkeyNext
 0001:0002408C      _hb_inkeyPoll
 0001:00024110      _hb_inkeyReset
 0001:00024198      _HB_FUN_INKEY
 0001:00024234      _HB_FUN___KEYBOARD
 0001:000242E4      _hb_inkeyPut
 0001:00024328      _HB_FUN_HB_KEYPUT
 0001:00024348      _HB_FUN_NEXTKEY
 0001:00024388      _HB_FUN_LASTKEY
 0001:000243C8      _hb_inkeyTranslate
 0001:00025B2C      _hb_lang_ForceLink
 0001:00025B2C      @C285_0
 0001:00025B88      _hb_langRegister
 0001:00025BD8      _hb_langDeRegister
 0001:00025C00      _hb_langFind
 0001:00025C24      _hb_langSelect
 0001:00025C60      _hb_langSelectID
 0001:00025C84      _hb_langDGetItem
 0001:00025CA8      _hb_langID
 0001:00025CC0      _hb_langName
 0001:00025D1C      _hb_langDGetErrorDesc
 0001:00025D30      _HB_FUN_HB_LANGSELECT
 0001:00025D54      _HB_FUN_HB_LANGNAME
 0001:00025D74      _HB_FUN_HB_LANGERRMSG
 0001:00025D94      _HB_FUN_HB_LANGMESSAGE
 0001:00025DB4      @C287_0
 0001:00025DB4      _HB_FUN_LEFT
 0001:00025E74      @C289_0
 0001:00025E74      _HB_FUN_LEN
 0001:00025EF4      _hb_mathResetError
 0001:00025EF4      @C293_0
 0001:00025F3C      _hb_mathGetLastError
 0001:00025FB8      _hb_mathIsMathErr
 0001:00025FC0      __matherr
 0001:000260B4      _hb_mathSetErrMode
 0001:000260C8      _hb_mathGetErrMode
 0001:000260D0      _HB_FUN_MATHERRMODE
 0001:0002611C      _hb_matherr
 0001:000262EC      _hb_mathSetHandler
 0001:00026300      _hb_mathGetHandler
 0001:00026548      _HB_FUN_MATHERRORBLOCK
 0001:00026630      _HB_FUN_EXP
 0001:00026718      _HB_FUN_LOG
 0001:00026808      _HB_FUN_SQRT
 0001:000268CC      @C295_0
 0001:000268CC      _HB_FUN_MAXROW
 0001:000268E4      _HB_FUN_MAXCOL
 0001:000268FC      @C297_0
 0001:000268FC      _HB_FUN_MEMOREAD
 0001:000269F0      _HB_FUN_MEMOWRIT
 0001:00026A9C      @C301_0
 0001:00026A9C      _HB_FUN_MAX
 0001:00026D30      _HB_FUN_MIN
 0001:00026FC4      @C313_0
 0001:00026FC4      _hb_mouseIsPresent
 0001:00026FCC      _hb_mouseGetCursor
 0001:00026FD4      _hb_mouseSetCursor
 0001:00026FFC      _hb_mouseCol
 0001:00027004      _hb_mouseRow
 0001:0002700C      _hb_mouseSetPos
 0001:00027024      _hb_mouseIsButtonPressed
 0001:00027034      _hb_mouseCountButton
 0001:0002703C      _hb_mouseSetBounds
 0001:0002705C      _hb_mouseGetBounds
 0001:0002707C      _HB_FUN_MPRESENT
 0001:000270A0      _HB_FUN_MHIDE
 0001:000270AC      _HB_FUN_MSHOW
 0001:000270B8      _HB_FUN_MSETCURSOR
 0001:000270FC      _HB_FUN_MROW
 0001:00027110      _HB_FUN_MCOL
 0001:00027124      _HB_FUN_MSETPOS
 0001:00027160      _HB_FUN_MRIGHTDOWN
 0001:00027188      _HB_FUN_MLEFTDOWN
 0001:000271B0      _HB_FUN_MDBLCLK
 0001:000271E8      _HB_FUN_MSAVESTATE
 0001:00027298      _HB_FUN_MRESTSTATE
 0001:00027358      _HB_FUN_MSETBOUNDS
 0001:000273BC      _HB_FUN_PADC
 0001:000273BC      @C331_0
 0001:000274DC      @C335_0
 0001:000274DC      _HB_FUN_PADR
 0001:000275C4      @C337_0
 0001:000275C4      _HB_FUN_FOPEN
 0001:00027640      _HB_FUN_FCREATE
 0001:000276A0      _HB_FUN_HB_FCREATE
 0001:00027720      _HB_FUN_FREAD
 0001:000277AC      _HB_FUN_FWRITE
 0001:0002782C      _HB_FUN_FERROR
 0001:00027844      _HB_FUN_HB_OSERROR
 0001:0002785C      _HB_FUN_FCLOSE
 0001:000278B8      _HB_FUN_FERASE
 0001:000278FC      _HB_FUN_FRENAME
 0001:00027960      _HB_FUN_FSEEK
 0001:000279D8      _HB_FUN_FREADSTR
 0001:00027A70      _HB_FUN_CURDIR
 0001:00027AF0      _HB_FUN_HB_F_EOF
 0001:00027B48      _HB_FUN_CURDIRX
 0001:00027BC8      _HB_FUN_HB_OSPATHSEPARATOR
 0001:00027BE4      _HB_FUN_HB_OSPATHLISTSEPARATOR
 0001:00027C00      _HB_FUN_HB_OSPATHDELIMITERS
 0001:00027C14      _HB_FUN_HB_OSDRIVESEPARATOR
 0001:00027C30      _HB_FUN_HB_OPENPROCESS
 0001:00027E6C      _HB_FUN_HB_CLOSEPROCESS
 0001:00027F78      _HB_FUN_HB_PROCESSVALUE
 0001:00028068      _HB_FUN_HB_FCOMMIT
 0001:00028078      _pcre_maketables
 0001:00028078      @C345_0
 0001:0002830C      _pcre_copy_substring
 0001:00028364      _pcre_get_substring_list
 0001:00028424      _pcre_free_substring_list
 0001:00028434      _pcre_get_substring
 0001:0002849C      _pcre_free_substring
 0001:0002894C      _pcre_study
 0001:00028A30      _pcre_version
 0001:00028A38      _pcre_info
 0001:00028A9C      _pcre_fullinfo
 0001:0002A54C      _pcre_compile
 0001:0002CBA8      _pcre_exec
 0001:0002D030      _regerror
 0001:0002D0DC      _regfree
 0001:0002D0F0      _regcomp
 0001:0002D158      _regexec
 0001:0002D310      _HB_FUN_HB_ATX
 0001:0002D588      _hb_regex
 0001:0002D95C      _HB_FUN_HB_REGEX
 0001:0002D96C      _HB_FUN_HB_REGEXATX
 0001:0002D97C      _HB_FUN_HB_REGEXMATCH
 0001:0002D9A8      _HB_FUN_HB_REGEXSPLIT
 0001:0002D9B8      _HB_FUN_HB_REGEXCOMP
 0001:0002DAD8      _HB_FUN_REPLICATE
 0001:0002DAD8      @C347_0
 0001:0002DC18      @C351_0
 0001:0002DC18      _HB_FUN_INT
 0001:0002DCC0      _hb_numRound
 0001:0002DE24      _HB_FUN_ROUND
 0001:0002DEB4      _HB_FUN_SAVESCREEN
 0001:0002DEB4      @C357_0
 0001:0002DF60      _HB_FUN_RESTSCREEN
 0001:0002DFD8      @C361_0
 0001:0002DFD8      _hb_dateSeconds
 0001:0002E044      _hb_secondsCPU
 0001:0002E08C      _HB_FUN_SECONDS
 0001:0002E0A8      _HB_FUN_SECONDSCPU
 0001:0002E0CC      _HB_FUN_HB_CLOCKS2SECS
 0001:0002E104      @C363_0
 0001:0002E6E8      _HB_FUN_SETCANCEL
 0001:0002E72C      _HB_FUN___SETCENTURY
 0001:0002E948      _HB_FUN_SET
 0001:0003048C      _hb_setInitialize
 0001:0003074C      _hb_setRelease
 0001:00030854      _hb_setListenerAdd
 0001:000308A0      _hb_setListenerNotify
 0001:000308CC      _hb_setListenerRemove
 0001:00030918      _hb_setGetFirstSetPath
 0001:00030920      _hb_conSetColor
 0001:00030920      @C365_0
 0001:00030948      _HB_FUN_SETCOLOR
 0001:00030980      _HB_FUN_COLORSELECT
 0001:000309A0      _HB_FUN_SETBLINK
 0001:000309EC      _HB_FUN_HB_COLORTON
 0001:00030A30      _hb_conSetCursor
 0001:00030A30      @C367_0
 0001:00030A58      _HB_FUN_SETCURSOR
 0001:00030A94      _hb_setkeyInit
 0001:00030A94      @C369_0
 0001:00030A9C      _hb_setkeyExit
 0001:00030C00      _HB_FUN_SETKEY
 0001:00030CE0      _HB_FUN_HB_SETKEYARRAY
 0001:00030D58      _HB_FUN_HB_SETKEYGET
 0001:00030DB4      _HB_FUN_HB_SETKEYSAVE
 0001:00030F24      _HB_FUN_HB_SETKEYCHECK
 0001:000310A0      _HB_FUN_SETPOS
 0001:000310A0      @C371_0
 0001:000310DC      _HB_FUN_ROW
 0001:00031104      _HB_FUN_COL
 0001:0003112C      _HB_FUN_SPACE
 0001:0003112C      @C379_0
 0001:000311B4      @C381_0
 0001:000311B4      _hb_spFile
 0001:00031298      _hb_spOpen
 0001:000312E0      _hb_spCreate
 0001:00031344      _hb_spCreateEx
 0001:000313AC      _HB_FUN_STR
 0001:000313AC      @C383_0
 0001:000314DC      _HB_FUN_HB_POINTER2STRING
 0001:00031568      _HB_FUN_HB_STRING2POINTER
 0001:000315B0      @C385_0
 0001:000315B0      _hb_strLower
 0001:00031614      _hb_strLowerCopy
 0001:000316A8      _hb_strUpperCopy
 0001:0003173C      _hb_strUpper
 0001:000317A0      _hb_strncpyUpper
 0001:000317EC      _hb_strncpyUpperTrim
 0001:00031868      _HB_FUN_LOWER
 0001:000318C4      _HB_FUN_UPPER
 0001:00031920      @C389_0
 0001:00031920      _hb_strEmpty
 0001:00031958      _hb_strnicmp
 0001:00031A04      @C391_0
 0001:00031AFC      _hb_strMatchRegExp
 0001:00031B14      @C395_0
 0001:00031B14      _HB_FUN_STRTRAN
 0001:00031E3C      @C397_0
 0001:00031E3C      _HB_FUN_STRZERO
 0001:00032014      @C401_0
 0001:00032014      _HB_FUN_SUBSTR
 0001:000321A0      @C407_0
 0001:000321C8      _hb_PrinterExists
 0001:000323D4      _HB_FUN_PRINTEREXISTS
 0001:00032418      _hb_GetDefaultPrinter
 0001:00032498      _HB_FUN_GETDEFAULTPRINTER
 0001:000324EC      _hb_GetPrinterNameByPort
 0001:000325B8      _HB_FUN_PRINTERPORTTONAME
 0001:00032630      _hb_PrintFileRaw
 0001:00032760      _HB_FUN_PRINTFILERAW
 0001:000327E0      _HB_FUN_GETPRINTERS
 0001:00032B70      _hb_traceInit
 0001:00032B70      @C409_0
 0001:00032BB8      _hb_traceExit
 0001:00032BBC      _TraceLog
 0001:00032C14      _HB_FUN_HB_TRACESTATE
 0001:00032C48      _HB_FUN_HB_TRACELEVEL
 0001:00032C7C      _HB_FUN_HB_TRACESTRING
 0001:00032CB0      _HB_FUN_TRANSFORM
 0001:00032CB0      @C411_0
 0001:00033FB4      _hb_strLTrim
 0001:00033FB4      @C413_0
 0001:00033FE0      _hb_strRTrimLen
 0001:00034024      _HB_FUN_LTRIM
 0001:00034090      _HB_FUN_RTRIM
 0001:00034118      _HB_FUN_TRIM
 0001:00034120      _HB_FUN_ALLTRIM
 0001:000341BC      _HB_FUN_TYPE
 0001:000341BC      @C415_0
 0001:0003422C      @C417_0
 0001:0003422C      _hb_strVal
 0001:000342F8      _HB_FUN_VAL
 0001:000343C8      @C421_0
 0001:000343C8      _HB_FUN_VALTYPE
 0001:000343F0      _HB_FUN_HB_ISBYREF
 0001:00034488      _HB_FUN_HB_ISNIL
 0001:000344CC      _HB_FUN_HB_ISCHAR
 0001:000344F8      _HB_FUN_HB_ISMEMO
 0001:00034524      _HB_FUN_HB_ISNUM
 0001:0003454C      _HB_FUN_HB_ISLOGIC
 0001:00034578      _HB_FUN_HB_ISDATE
 0001:000345A0      _HB_FUN_HB_ISARRAY
 0001:000345E4      _HB_FUN_HB_ISOBJECT
 0001:00034628      _HB_FUN_HB_ISBLOCK
 0001:00034654      _HB_FUN_HB_ISPOINTER
 0001:0003467C      @C427_0
 0001:0003467C      _HB_FUN___XHELP
 0001:000346FC      @C429_0
 0001:000346FC      _hb_conXSaveRestRelease
 0001:00034718      _HB_FUN___XSAVESCREEN
 0001:00034784      _HB_FUN___XRESTSCREEN
 0001:000347DC      @C435_0
 0001:000347DC      @C435_2
 0001:000347F4      _HB_FUN_ALERT
 0001:0003480C      _HB_FUN___NONOALERT
 0001:0003483C      @C449_0
 0001:0003483C      @C449_2
 0001:00034854      _HB_FUN_CSTR
 0001:0003486C      _HB_FUN_CSTRTOVAL
 0001:00034884      _HB_FUN_VALTOPRG
 0001:0003489C      _HB_FUN_VALTOPRGEXP
 0001:000348B4      @C465_2
 0001:000348B4      @C465_0
 0001:000348CC      _HB_FUN_ERRORSYS
 0001:00034974      @C489_2
 0001:00034974      @C489_0
 0001:0003498C      _HB_FUN___OBJHASDATA
 0001:000349A4      _HB_FUN___OBJHASMETHOD
 0001:000349BC      _HB_FUN___OBJGETMSGLIST
 0001:000349D4      _HB_FUN___OBJGETMETHODLIST
 0001:000349EC      _HB_FUN___OBJGETVALUELIST
 0001:00034A04      _HB_FUN___OBJGETVALUEDIFF
 0001:00034A1C      _HB_FUN___OBJGETDERIVEDDIFF
 0001:00034A34      _HB_FUN___OBJSETVALUELIST
 0001:00034A4C      _HB_FUN___OBJADDMETHOD
 0001:00034A64      _HB_FUN___OBJADDINLINE
 0001:00034A7C      _HB_FUN___OBJADDDATA
 0001:00034A94      _HB_FUN___OBJADDACCESSASSIGN
 0001:00034AAC      _HB_FUN___OBJMODMETHOD
 0001:00034AC4      _HB_FUN___OBJMODINLINE
 0001:00034ADC      _HB_FUN___OBJDELMETHOD
 0001:00034AF4      _HB_FUN___OBJDELINLINE
 0001:00034B0C      _HB_FUN___OBJSETMETHOD
 0001:00034B24      _HB_FUN___OBJDELDATA
 0001:00034B3C      _HB_FUN___OBJDERIVEDFROM
 0001:00034B54      @C517_2
 0001:00034B54      @C517_0
 0001:00034B6C      _HB_FUN_HBCLASS
 0001:00034CD4      _HB_FUN___CLASSNEW
 0001:00034CEC      _HB_FUN___CLASSADD
 0001:00034D04      _HB_FUN___CLASSINS
 0001:00034D34      @C521_2
 0001:00034D34      @C521_0
 0001:00034D4C      _HB_FUN_ERRORNEW
 0001:00034D64      _HB_FUN_HB_SETTRY
 0001:00034D7C      _HB_FUN_HB_RESETTRY
 0001:00034DAC      @C535_0
 0001:00034DAC      @C535_2
 0001:00034DC4      _HB_FUN_HBOBJECT
 0001:00034E3C      _HB_FUN_TASSOCIATIVEARRAY
 0001:00034E84      @C539_0
 0001:00034E84      @C539_2
 0001:00034E9C      _HB_FUN_TRACELOG
 0001:00034EB4      @C561_0
 0001:000351F0      _hb_rddInherit
 0001:000352CC      _hb_rddReleaseCurrentArea
 0001:00035338      _hb_rddNewAreaNode
 0001:0003541C      _hb_rddInsertAreaNode
 0001:000354C8      _hb_rddFieldIndex
 0001:00035518      _hb_rddIterateWorkAreas
 0001:0003554C      _hb_rddGetCurrentWorkAreaNumber
 0001:00035554      _hb_rddSelectWorkAreaNumber
 0001:00035598      _hb_rddSelectWorkAreaSymbol
 0001:0003566C      _hb_rddSelectWorkAreaAlias
 0001:00035784      _hb_rddGetCurrentWorkAreaPointer
 0001:0003579C      _hb_rddGetFieldValue
 0001:0003581C      _hb_rddPutFieldValue
 0001:0003589C      _hb_rddFieldPut
 0001:000358EC      _hb_rddFieldGet
 0001:0003593C      _hb_rddShutDown
 0001:0003598C      _HB_FUN_AFIELDS
 0001:00035BB0      _HB_FUN_ALIAS
 0001:00035C30      _HB_FUN_DBEVAL
 0001:00035E74      _HB_FUN_DBF
 0001:00035EE8      _HB_FUN_BOF
 0001:00035F24      _HB_FUN_DBAPPEND
 0001:00035F94      _HB_FUN_DBCLEARFILTER
 0001:00035FC4      _HB_FUN_DBCLOSEALL
 0001:00035FCC      _HB_FUN_DBCLOSEAREA
 0001:00035FDC      _HB_FUN_DBCOMMIT
 0001:00036008      _HB_FUN_DBCOMMITALL
 0001:00036038      _HB_FUN___DBCONTINUE
 0001:000360D8      _HB_FUN_DBCREATE
 0001:000366D4      _HB_FUN_DBDELETE
 0001:00036700      _HB_FUN_DBFILTER
 0001:00036760      _HB_FUN_DBGOBOTTOM
 0001:0003678C      _HB_FUN_DBGOTO
 0001:000367F4      _HB_FUN_DBGOTOP
 0001:00036820      _HB_FUN___DBLOCATE
 0001:00036DD8      _HB_FUN___DBSETLOCATE
 0001:00036E28      _HB_FUN___DBPACK
 0001:00036F34      _HB_FUN_DBRECALL
 0001:00036F60      _HB_FUN_DBRLOCK
 0001:0003701C      _HB_FUN_DBRLOCKLIST
 0001:0003706C      _HB_FUN_DBRUNLOCK
 0001:000370A8      _HB_FUN_DBSEEK
 0001:000371C0      _HB_FUN_DBSELECTAREA
 0001:00037310      _HB_FUN___DBSETFOUND
 0001:00037344      _HB_FUN_DBSETFILTER
 0001:000373DC      _HB_FUN_DBSKIP
 0001:0003742C      _HB_FUN_DBSTRUCT
 0001:00037530      _HB_FUN_DBTABLEEXT
 0001:0003769C      _HB_FUN_DBUNLOCK
 0001:000376D0      _HB_FUN_DBUNLOCKALL
 0001:00037704      _HB_FUN_DBUSEAREA
 0001:00037A30      _HB_FUN___DBZAP
 0001:00037A60      _HB_FUN_DELETED
 0001:00037A9C      _HB_FUN_EOF
 0001:00037AD8      _HB_FUN_FCOUNT
 0001:00037B08      _HB_FUN_FIELDDEC
 0001:00037B70      _HB_FUN_FIELDGET
 0001:00037BDC      _HB_FUN_FIELDLEN
 0001:00037C44      _HB_FUN_FIELDNAME
 0001:00037CD8      _HB_FUN_FIELDPOS
 0001:00037D64      _HB_FUN_FIELDPUT
 0001:00037DB0      _HB_FUN_FIELDTYPE
 0001:00037E1C      _HB_FUN_FLOCK
 0001:00037E84      _HB_FUN_FOUND
 0001:00037EC0      _HB_FUN_HEADER
 0001:00037F0C      _HB_FUN_INDEXORD
 0001:00037F80      _HB_FUN_LASTREC
 0001:00037FB0      _HB_FUN_LOCK
 0001:00038014      _HB_FUN_LUPDATE
 0001:0003804C      _HB_FUN_NETERR
 0001:00038090      _HB_FUN_ORDBAGEXT
 0001:00038220      _HB_FUN_ORDBAGNAME
 0001:00038354      _HB_FUN_ORDCONDSET
 0001:000385D0      _HB_FUN_ORDCREATE
 0001:000386C0      _HB_FUN_ORDDESTROY
 0001:00038724      _HB_FUN_ORDFOR
 0001:0003886C      _HB_FUN_ORDKEY
 0001:000389B4      _HB_FUN_ORDKEYCOUNT
 0001:00038A68      _HB_FUN_ORDKEYNO
 0001:00038B1C      _HB_FUN_ORDKEYVAL
 0001:00038B84      _HB_FUN_ORDKEYADD
 0001:00038C3C      _HB_FUN_ORDKEYDEL
 0001:00038CF4      _HB_FUN_ORDLISTADD
 0001:00038E34      _HB_FUN_ORDLISTCLEAR
 0001:00038E64      _HB_FUN_ORDLISTREBUILD
 0001:00038E94      _HB_FUN_ORDNAME
 0001:00038FC0      _HB_FUN_ORDNUMBER
 0001:000390A4      _HB_FUN_ORDSETFOCUS
 0001:00039158      _HB_FUN_RDDLIST
 0001:000391C8      _HB_FUN_RDDNAME
 0001:00039234      _HB_FUN_RDDREGISTER
 0001:000392A4      _HB_FUN_RECCOUNT
 0001:000392AC      _HB_FUN_RECNO
 0001:000392E0      _HB_FUN_RECSIZE
 0001:0003932C      _HB_FUN_RLOCK
 0001:00039394      _HB_FUN_SELECT
 0001:0003944C      _HB_FUN_USED
 0001:00039470      _HB_FUN___RDDSETDEFAULT
 0001:000394F0      _HB_FUN_RDDSETDEFAULT
 0001:000395B4      _HB_FUN_DBSETDRIVER
 0001:00039678      _HB_FUN_ORDSCOPE
 0001:00039838      _HB_FUN_DBRELATION
 0001:00039880      _HB_FUN_DBRSELECT
 0001:000398C0      _HB_FUN_DBCLEARRELATION
 0001:000398D8      _HB_FUN_DBSETRELATION
 0001:00039AC8      _HB_FUN___DBARRANGE
 0001:00039EB0      _HB_FUN_DBINFO
 0001:00039F5C      _HB_FUN_DBORDERINFO
 0001:0003A070      _HB_FUN_DBFIELDINFO
 0001:0003A14C      _HB_FUN_DBRECORDINFO
 0001:0003A208      _HB_FUN_DBFILEGET
 0001:0003A318      _HB_FUN_DBFILEPUT
 0001:0003A40C      _HB_FUN_DBDROP
 0001:0003A49C      _HB_FUN_DBEXISTS
 0001:0003AE84      _HB_FUN___DBAPP
 0001:0003AF18      _HB_FUN___DBCOPY
 0001:0003AFAC      _HB_FUN_DBUSEAREAD
 0001:0003B224      _hb_rddGetTempAlias
 0001:0003B26C      _HB_FUN___RDDGETTEMPALIAS
 0001:0003B288      _HB_FUN_DBSKIPPER
 0001:0003B400      @C563_0
 0001:0003B400      _hb_waBof
 0001:0003B414      _hb_waEof
 0001:0003B428      _hb_waFound
 0001:0003B43C      _hb_waSkip
 0001:0003B4BC      _hb_waSkipFilter
 0001:0003B5D8      _hb_waAddField
 0001:0003B67C      _hb_waCreateFields
 0001:0003B7F4      _hb_waFieldCount
 0001:0003B808      _hb_waFieldInfo
 0001:0003B940      _hb_waFieldName
 0001:0003B988      _hb_waSetFieldExtent
 0001:0003B9D0      _hb_waAlias
 0001:0003B9F4      _hb_waClose
 0001:0003BA40      _hb_waCloseAux
 0001:0003BAF0      _hb_waInfo
 0001:0003BB1C      _hb_waOrderInfo
 0001:0003BB4C      _hb_waNewArea
 0001:0003BB74      _hb_waOrderCondition
 0001:0003BBEC      _hb_waRelease
 0001:0003BC2C      _hb_waStructSize
 0001:0003BC3C      _hb_waSysName
 0001:0003BC4C      _hb_waEval
 0001:0003BD8C      _hb_waTrans
 0001:0003BDA0      _hb_waTransRec
 0001:0003BDB4      _hb_waChildEnd
 0001:0003BDC4      _hb_waChildStart
 0001:0003BDD4      _hb_waSyncChildren
 0001:0003BE00      _hb_waClearRel
 0001:0003BE74      _hb_waRelArea
 0001:0003BEC0      _hb_waRelEval
 0001:0003BF78      _hb_waRelText
 0001:0003BFE4      _hb_waSetRel
 0001:0003C050      _hb_waClearFilter
 0001:0003C084      _hb_waClearLocate
 0001:0003C118      _hb_waFilterText
 0001:0003C138      _hb_waSetFilter
 0001:0003C178      _hb_waSetLocate
 0001:0003C20C      _hb_waCompile
 0001:0003C254      _hb_waError
 0001:0003C2BC      _hb_waEvalBlock
 0001:0003C2F0      @C565_3
 0001:0003C2F0      @C565_0
 0001:0003C858      _hb_dbfGetEGcode
 0001:0003C928      _hb_dbfGetMemoBlock
 0001:0003C980      _hb_dbfPutMemoBlock
 0001:0003F62C      _HB_FUN__DBFC
 0001:0003F630      _HB_FUN_DBF_GETFUNCTABLE
 0001:0003F69C      @C569_3
 0001:0003F69C      @C569_0
 0001:0003F6B4      _HB_FUN__DELIMC
 0001:0003F6B8      _HB_FUN_DELIM_GETFUNCTABLE
 0001:0003F724      @C571_0
 0001:0003F724      @C571_3
 0001:0003F73C      _HB_FUN__SDFC
 0001:0003F740      _HB_FUN_SDF_GETFUNCTABLE
 0001:0003F7AC      @C573_2
 0001:0003F7AC      @C573_0
 0001:0003F7DC      _HB_FUN__DBF
 0001:0003F7F4      @C575_2
 0001:0003F7F4      @C575_0
 0001:0003F80C      _HB_FUN_DBCLEARFIL
 0001:0003F824      _HB_FUN_DBSETDRIVE
 0001:0003F83C      _HB_FUN_DBSETRELAT
 0001:0003F854      _HB_FUN_DBRLOCKLIS
 0001:0003F86C      _HB_FUN_DBCLOSEARE
 0001:0003F884      _HB_FUN_RDDSETDEFA
 0001:0003F89C      _HB_FUN_DBSELECTAR
 0001:0003F8B4      _HB_FUN_DBUNLOCKAL
 0001:0003F8CC      _HB_FUN_DBCLEARREL
 0001:0003F8E4      _HB_FUN_DBSETFILTE
 0001:0003F8FC      _HB_FUN_DBFIELDINF
 0001:0003F914      _HB_FUN_DBORDERINF
 0001:0003F92C      _HB_FUN_DBRECORDIN
 0001:0003F944      _hb_dbQSortInit
 0001:0003F944      @C583_0
 0001:0003F9E8      _hb_dbQSortExit
 0001:0003FA48      _hb_dbQSortAdvance
 0001:0003FF04      _hb_dbQSortComplete
 0001:0003FFB8      @C589_0
 0001:0003FFB8      @C589_2
 0001:0003FFE8      _HB_FUN__DELIM
 0001:00040000      @C591_2
 0001:00040000      @C591_0
 0001:00040018      _HB_FUN_DBCREATEINDEX
 0001:00040030      _HB_FUN_DBSETINDEX
 0001:00040048      _HB_FUN_DBCLEARINDEX
 0001:00040060      _HB_FUN_DBREINDEX
 0001:00040078      _HB_FUN_DBSETORDER
 0001:00040090      _HB_FUN_INDEXEXT
 0001:000400A8      _HB_FUN_INDEXKEY
 0001:000400C0      _HB_FUN_ORDLISTCLE
 0001:000400D8      _HB_FUN_ORDLISTREB
 0001:000400F0      _HB_FUN_ORDSETFOCU
 0001:00040108      @C593_2
 0001:00040108      @C593_0
 0001:00040120      _HB_FUN_RDDINIT
 0001:00040138      _HB_FUN_RDDSYS
 0001:00040150      @C595_0
 0001:00040150      @C595_2
 0001:00040180      _HB_FUN__SDF
 0001:00040198      @C597_0
 0001:000401A0      _hb_compparse
 0001:0004380C      _hb_macroYYParse
 0001:0004383C      _hb_comperror
 0001:00043844      _hb_compExprDelete
 0001:00043844      @C599_0
 0001:00043874      _hb_compExprFree
 0001:000438A4      _hb_compExprErrorType
 0001:000438BC      _hb_compExprCBVarAdd
 0001:0004393C      _hb_compExprNewIIF
 0001:00043948      _hb_compExprNewFunCall
 0001:00043970      _hb_compExprNewString
 0001:000439A4      _hb_compExprNewArrayAt
 0001:000439F8      _hb_compExprSetOperand
 0001:00043A68      _hb_compExprGenStatement
 0001:00043AA8      _hb_compExprGenPush
 0001:00043AE8      _hb_compExprGenPop
 0001:00043B28      _hb_compExprCBVarDel
 0001:00043B54      @C601_0
 0001:00048AA8      _hb_compExprDelOperator
 0001:00048AA8      @C603_0
 0001:00048AD8      _hb_compExprPushOperEq
 0001:00048C3C      _hb_compExprUseOperEq
 0001:00048DA0      _hb_compExprPushPreOp
 0001:00048ED0      _hb_compExprPushPostOp
 0001:00048F60      _hb_compExprUsePreOp
 0001:00048FD4      _hb_compExprUseAliasMacro
 0001:000490E8      _hb_compExprReduceList
 0001:0004912C      _hb_compExprCheckMacroVar
 0001:00049184      _hb_compExprReducePlusStrings
 0001:000491E4      @C605_0
 0001:0004945C      _hb_macro_SLX_Hex2L
 0001:00049560      _hb_compFlexNew
 0001:00049584      _hb_compFlexDelete
 0001:0004958C      _hb_complex
 0001:000496EC      _SimpLex_GetNextToken
 0001:00049F14      _SimpLex_CheckToken
 0001:0004A268      _SimpLex_CheckWords
 0001:0004A700      _yy_create_buffer
 0001:0004A714      _yy_switch_to_buffer
 0001:0004A728      _yy_delete_buffer
 0001:0004A73C      _yy_bytes_buffer
 0001:0004A9FC      @C617_0
 0001:0004A9FC      @C617_3
 0001:00051AE0      _HB_FUN__DBFNTX
 0001:00051AE4      _HB_FUN_DBFNTX_GETFUNCTABLE
 0001:00051B98      @C619_0
 0001:00051B98      @C619_2
 0001:00051BB0      _HB_FUN_DBFNTXINIT
 0001:00051BC8      _HB_FUN_DBFNTX
 0001:00051BE0      _HB_FUN__DBFDBT
 0001:00051BE0      @C629_0
 0001:00051BE4      _HB_FUN_DBFDBT_GETFUNCTABLE
 0001:00051C5C      @C629_3
 0001:00052608      @C631_0
 0001:00052608      @C631_2
 0001:00052620      _HB_FUN_DBFDBTINIT
 0001:00052638      _HB_FUN_DBFDBT
 0001:00052650      @C635_0
 0001:00052694      _hb_fsAddSearchPath
 0001:000526DC      _hb_fsFNameSplit
 0001:000528A4      _hb_fsFNameMerge
 0001:00052984      _hb_getenv
 0001:00052984      @C637_0
 0001:000529B8      _hb_strAt
 0001:000529B8      @C641_0
 0001:00052A10      _hb_strupr
 0001:00052A38      _hb_strdup
 0001:00052A68      _hb_stricmp
 0001:00052B0C      _hb_tracestate
 0001:00052B0C      @C643_0
 0001:00052B2C      _hb_tracelevel
 0001:00052B4C      _hb_tr_level
 0001:00052C40      _hb_tr_trace
 0001:00052D24      @C645_0
 0001:00052D24      _hb_verPlatform
 0001:00052E5C      _hb_verCompiler
 0001:00052EC8      _hb_verHarbour
 0001:00052EF0      _hb_verPCode
 0001:00052F10      _hb_verBuildInfo
 0001:000534F0      @C647_0
 0001:000534F0      _hb_compExprNew
 0001:00053518      _hb_compExprClear
 0001:0005352C      _hb_compExprClone
 0001:00053538      _hb_compExprDescription
 0001:00053558      _hb_compExprType
 0001:00053564      _hb_compExprNewEmpty
 0001:00053570      _hb_compExprNewDouble
 0001:000535A0      _hb_compExprNewLong
 0001:000535C0      _hb_compExprNewCodeBlock
 0001:000535D8      _hb_compExprNewLogical
 0001:000535F0      _hb_compExprNewNil
 0001:00053600      _hb_compExprNewSelf
 0001:00053610      _hb_compExprNewVarRef
 0001:00053628      _hb_compExprNewMemVarRef
 0001:00053640      _hb_compExprNewFunRef
 0001:00053658      _hb_compExprNewArray
 0001:000536AC      _hb_compExprNewMacro
 0001:00053704      _hb_compExprNewAliasVar
 0001:0005373C      _hb_compExprNewAliasExpr
 0001:00053768      _hb_compExprNewSend
 0001:00053790      _hb_compExprNewSendExp
 0001:000537D8      _hb_compExprNewWithSend
 0001:0005381C      _hb_compExprNewMethodCall
 0001:0005382C      _hb_compExprNewWithMethodCall
 0001:0005383C      _hb_compExprNewList
 0001:00053850      _hb_compExprNewArgList
 0001:00053864      _hb_compExprAddListExpr
 0001:0005388C      _hb_compExprNewVar
 0001:000538A0      _hb_compExprNewRTVar
 0001:000538C4      _hb_compExprNewFunName
 0001:000538D8      _hb_compExprNewAlias
 0001:000538EC      _hb_compExprNewEqual
 0001:00053904      _hb_compExprNewPlus
 0001:0005391C      _hb_compExprNewMinus
 0001:00053934      _hb_compExprNewMult
 0001:0005394C      _hb_compExprNewDiv
 0001:00053964      _hb_compExprNewMod
 0001:0005397C      _hb_compExprNewPower
 0001:00053994      _hb_compExprNewPostInc
 0001:000539AC      _hb_compExprNewPostDec
 0001:000539C4      _hb_compExprNewPreInc
 0001:000539DC      _hb_compExprNewPreDec
 0001:000539F4      _hb_compExprNewPlusEq
 0001:00053A0C      _hb_compExprNewMinusEq
 0001:00053A24      _hb_compExprNewMultEq
 0001:00053A3C      _hb_compExprNewDivEq
 0001:00053A54      _hb_compExprNewModEq
 0001:00053A6C      _hb_compExprNewExpEq
 0001:00053A84      _hb_compExprNewAnd
 0001:00053A9C      _hb_compExprNewOr
 0001:00053AB4      _hb_compExprNewMatch
 0001:00053ACC      _hb_compExprNewLike
 0001:00053AE4      _hb_compExprNewNot
 0001:00053B14      _hb_compExprNewEQ
 0001:00053B2C      _hb_compExprNewLT
 0001:00053B44      _hb_compExprNewGT
 0001:00053B5C      _hb_compExprNewLE
 0001:00053B74      _hb_compExprNewGE
 0001:00053B8C      _hb_compExprNewNE
 0001:00053BA4      _hb_compExprNewIN
 0001:00053BBC      _hb_compExprNewNegate
 0001:00053BF4      _hb_compExprAssign
 0001:00053C0C      _hb_compExprListLen
 0001:00053C28      _hb_compExprReduceMod
 0001:00053C28      @C649_0
 0001:00053CF8      _hb_compExprReduceDiv
 0001:00053E40      _hb_compExprReduceMult
 0001:00053F50      _hb_compExprReduceMinus
 0001:00054074      _hb_compExprReducePlus
 0001:000541E8      _hb_compExprReduceIN
 0001:00054264      _hb_compExprReduceNE
 0001:00054410      _hb_compExprReduceGE
 0001:000544FC      _hb_compExprReduceLE
 0001:000545E8      _hb_compExprReduceGT
 0001:000546D4      _hb_compExprReduceLT
 0001:000547C0      _hb_compExprReduceEQ
 0001:00054924      _hb_compExprReduceAnd
 0001:00054A4C      _hb_compExprReduceOr
 0001:00054B78      _hb_compExprReduceIIF
 0001:00054C28      _hb_compExprListStrip
 0001:00054C64      _hb_compReservedName
 0001:00054C64      @C651_0
 0001:00054CC4      @C653_0
 0001:00054F48      _hb_gt_ScreenUpdate
 0001:00055030      _hb_gt_Init
 0001:000551D8      _hb_gt_Exit
 0001:00055258      _hb_gt_GetScreenWidth
 0001:00055260      _hb_gt_GetScreenHeight
 0001:00055268      _hb_gt_Col
 0001:00055270      _hb_gt_Row
 0001:00055278      _hb_gt_SetPos
 0001:00055298      _hb_gt_AdjustPos
 0001:000552A4      _hb_gt_IsColor
 0001:000552AC      _hb_gt_GetCursorStyle
 0001:000552B4      _hb_gt_SetCursorStyle
 0001:000552D4      _hb_gt_DispBegin
 0001:000552DC      _hb_gt_DispEnd
 0001:000552F4      _hb_gt_DispCount
 0001:000552FC      _hb_gt_Puts
 0001:00055404      _hb_gt_Replicate
 0001:00055504      _hb_gt_RectSize
 0001:00055518      _hb_gt_GetText
 0001:000555C8      _hb_gt_PutText
 0001:000556B4      _hb_gt_SetAttribute
 0001:00055794      _hb_gt_Scroll
 0001:00055954      _hb_gt_SetMode
 0001:00055A7C      _hb_gt_GetBlink
 0001:00055A84      _hb_gt_SetBlink
 0001:00055A8C      _hb_gt_Version
 0001:00055AFC      _hb_gt_Box
 0001:00055F00      _hb_gt_BoxD
 0001:00055F2C      _hb_gt_BoxS
 0001:00055F58      _hb_gt_HorizLine
 0001:0005601C      _hb_gt_VertLine
 0001:000560DC      _hb_gt_Suspend
 0001:000560E4      _hb_gt_Resume
 0001:000560EC      _hb_gt_PreExt
 0001:000560F4      _hb_gt_PostExt
 0001:000560FC      _hb_gt_OutStd
 0001:00056118      _hb_gt_OutErr
 0001:00056134      _hb_gt_ExtendedKeySupport
 0001:00056190      _hb_gt_ReadKey
 0001:00056A3C      _hb_gt_Tone
 0001:00056BD0      _hb_mouse_Init
 0001:00056BD0      @C655_0
 0001:00056BE0      _hb_mouse_Exit
 0001:00056BE4      _hb_mouse_IsPresent
 0001:00056BEC      _hb_mouse_Show
 0001:00056BF0      _hb_mouse_Hide
 0001:00056BF4      _hb_mouse_Col
 0001:00056BFC      _hb_mouse_Row
 0001:00056C04      _hb_mouse_SetPos
 0001:00056C0C      _hb_mouse_IsButtonPressed
 0001:00056C44      _hb_mouse_CountButton
 0001:00056C58      _hb_mouse_SetBounds
 0001:00056C60      _hb_mouse_GetBounds
 0001:00056C68      ___org_calloc
 0001:00056C68      @C847_0
 0001:00056C68      _calloc
 0001:00056C94      @$bdele$qpv
 0001:00056C94      ___org_delete
 0001:00056C94      @C849_0
 0001:00056CA4      ___org_deletea
 0001:00056CA4      @C851_0
 0001:00056CA4      @$bdla$qpv
 0001:00056CB4      @_virt_reserve
 0001:00056CB4      @C877_0
 0001:00056D20      @_virt_alloc
 0001:00056D48      @_virt_commit
 0001:00056D94      @_virt_decommit
 0001:00056DAC      @_virt_release
 0001:00056DC8      @C879_0
 0001:00056DE8      ___CRTL_MEM_GetBorMemPtrs
 0001:00056E64      ___CRTL_MEM_CheckBorMem
 0001:00056E68      @C885_0
 0001:00056E68      _malloc
 0001:00056E68      ___org_malloc
 0001:00056E78      ___org_free
 0001:00056E78      _free
 0001:00056E88      @C887_0
 0001:00056E88      ___org_realloc
 0001:00056E88      _realloc
 0001:00056EA0      ___CRTL_MEM_Revector
 0001:00056EA0      @C889_0
 0001:00056F3C      @C889_2
 0001:00056F48      __free_heaps
 0001:00056F58      ___CRTL_MEM_UseBorMM
 0001:00056F58      @C891_0
 0001:00056F5C      @C895_0
 0001:00057540      __internal_free
 0001:000576B0      __internal_malloc
 0001:000578B0      __phys_avail
 0001:000578C8      __internal_free_heaps
 0001:00057928      @C915_0
 0001:00057928      ___org__expand
 0001:00057928      __expand
 0001:00057B08      __internal_realloc
 0001:00057BA0      ___org__msize
 0001:00057BA0      __msize
 0001:00057BBC      ___CRTL_VCL_Init
 0001:00057BBC      @C917_0
 0001:00057BC0      ___CRTL_VCLLIB_Linkage
 0001:00057BC0      @C921_0
 0001:00057BC4      _memchr
 0001:00057BC4      @C1060_0
 0001:00057BC4      ___org_memchr
 0001:00057BE4      @C1064_0
 0001:00057BE4      ___org_memcpy
 0001:00057BE4      _memcpy
 0001:00057C08      @C1068_0
 0001:00057C08      ___org_memmove
 0001:00057C08      _memmove
 0001:00057C54      ___org_memset
 0001:00057C54      @C1070_0
 0001:00057C54      _memset
 0001:00057CE0      __wmemset
 0001:00057CE0      @C1072_0
 0001:00057CF8      _strcat
 0001:00057CF8      ___org_strcat
 0001:00057CF8      @C1086_0
 0001:00057D34      @C1088_0
 0001:00057D34      ___org_strchr
 0001:00057D34      _strchr
 0001:00057D88      ___org_strlen
 0001:00057D88      _strlen
 0001:00057D88      @C1094_0
 0001:00057DE4      ___org_strncat
 0001:00057DE4      _strncat
 0001:00057DE4      @C1096_0
 0001:00057E54      @C1098_0
 0001:00057E54      ___org_strncmp
 0001:00057E54      _strncmp
 0001:00057E7C      ___org_memcmp
 0001:00057E7C      _memcmp
 0001:00057E7C      @C1112_0
 0001:00057EE8      ___org_strdup
 0001:00057EE8      @C1118_0
 0001:00057EE8      _strdup
 0001:00057F1C      @C1124_0
 0001:00057F1C      _strncpy
 0001:00057F1C      ___org_strncpy
 0001:00057F6C      @C1130_0
 0001:00057F6C      _strpbrk
 0001:00057F6C      ___org_strpbrk
 0001:00057F98      _strrchr
 0001:00057F98      ___org_strrchr
 0001:00057F98      @C1132_0
 0001:00057FC4      ___org_strstr
 0001:00057FC4      _strstr
 0001:00057FC4      @C1140_0
 0001:00058018      ___org_strtok
 0001:00058018      @C1142_0
 0001:00058018      _strtok
 0001:00058080      __stpcpy
 0001:00058080      @C1144_0
 0001:000580B8      @C1146_0
 0001:000580B8      _wcslen
 0001:000580D0      _wcscpy
 0001:000580D0      @C1148_0
 0001:00058110      @__InitExceptBlockLDTC
 0001:00058110      @C1188_0
 0001:00058149      @__ExitExceptBlock
 0001:00058157      __ExceptionHandler
 0001:00058180      @C1192_0
 0001:000582D7      @C1192_3
 0001:00058634      @__typeIDname$qp4tpid
 0001:0005866C      @__isSameTypeID$qp4tpidt1
 0001:00058748      @__isCompatTypeID$qp4tpidt1ipp4tpid
 0001:00058858      @__adjustClassAdr$qpvp4tpidt2
 0001:000588D4      @_InitTermAndUnexPtrs$qv
 0001:000588FC      @std@terminate$qv
 0001:0005894C      @std@unexpected$qv
 0001:00058974      @C1196_0
 0001:00058974      @C1196_4
 0001:000589A0      ___call_terminate
 0001:00058A14      ___call_unexpected
 0001:00058A4C      __ExceptInit
 0001:00058A98      __GetExceptDLLinfoInternal
 0001:00058AC0      ___DefHandler
 0001:00058AC0      @C1198_0
 0001:00058ACC      @C1202_0
 0001:00058BBC      __setexc
 0001:00058BD8      __unsetexc
 0001:00058BE8      __SetUserHandler
 0001:00058BFC      __unsetuserhandler
 0001:00058C08      __init_except
 0001:00058C08      @C1202_3
 0001:00058C20      __exit_except
 0001:00058C20      @C1202_4
 0001:00058C34      __InitDefaultHander
 0001:00058C48      __SetExceptionHandler
 0001:00058C48      @C1206_0
 0001:00058C5D      __UnsetExceptionHandler
 0001:00058C89      __UnwindException
 0001:00058C90      @jump$qv
 0001:00058C90      @C1208_0
 0001:00058C96      ___doGlobalUnwind
 0001:00058CAB      @invokeHnd$qv
 0001:00058CB4      @C1212_0
 0001:00058CB4      ___access
 0001:00058CF0      @C1214_0
 0001:00058CF0      ___close
 0001:00058D50      ___dup
 0001:00058D50      @C1216_0
 0001:00058D64      ___dup2
 0001:00058D64      @C1218_0
 0001:00058E54      ___eof
 0001:00058E54      @C1220_0
 0001:00058EDC      @C1222_0
 0001:00058EDC      ___ftruncate
 0001:00059000      @C1224_0
 0001:00059000      ___isatty
 0001:00059030      ___isatty_osfhandle
 0001:00059048      @C1226_0
 0001:00059048      ___lseek
 0001:000590C0      ___open
 0001:000590C0      @C1228_0
 0001:000592BC      @C1230_0
 0001:00059328      ___read
 0001:00059458      @C1232_0
 0001:00059458      ____wopen
 0001:00059654      ___write
 0001:00059654      @C1236_0
 0001:00059770      @C1238_0
 0001:00059784      __flushall
 0001:00059784      @C1256_0
 0001:000597BC      __pipe
 0001:000597BC      ___org__pipe
 0001:000597BC      @C1274_0
 0001:00059890      __rtl_read
 0001:00059890      ___org__rtl_read
 0001:00059890      @C1280_0
 0001:000598D8      ___org__read
 0001:000598D8      __read
 0001:000598F4      __wrtl_open
 0001:000598F4      @C1308_0
 0001:00059914      ___wopen
 0001:0005992C      __rtl_write
 0001:0005992C      ___org__rtl_write
 0001:0005992C      @C1312_0
 0001:00059974      __write
 0001:00059974      ___org__write
 0001:00059990      @C1314_0
 0001:00059990      _access
 0001:00059990      ___org_access
 0001:00059998      @C1316_0
 0001:00059998      __allocbuf
 0001:00059A18      @C1322_0
 0001:00059A18      ___org__chdrive
 0001:00059A18      __chdrive
 0001:00059A48      __getdrive
 0001:00059AB4      _chsize
 0001:00059AB4      ___org_chsize
 0001:00059AB4      @C1326_0
 0001:00059ABC      _close
 0001:00059ABC      ___org_close
 0001:00059ABC      @C1330_0
 0001:00059AC4      _dup
 0001:00059AC4      @C1363_0
 0001:00059AC4      ___org_dup
 0001:00059ACC      @C1365_0
 0001:00059ACC      _dup2
 0001:00059ACC      ___org_dup2
 0001:00059AD4      _eof
 0001:00059AD4      @C1367_0
 0001:00059AD4      ___org_eof
 0001:00059ADC      ___org_fclose
 0001:00059ADC      @C1369_0
 0001:00059ADC      _fclose
 0001:00059B6C      _fflush
 0001:00059B6C      ___org_fflush
 0001:00059B6C      @C1377_0
 0001:00059BEC      __flushout
 0001:00059BEC      @C1397_0
 0001:00059C48      @C1401_0
 0001:00059C48      __initfmode
 0001:00059C58      __initfileinfo
 0001:00059C6C      @C1406_0
 0001:00059D48      ___openfp
 0001:00059DF4      ___getfp
 0001:00059E20      _fopen
 0001:00059E20      ___org_fopen
 0001:00059E4C      @C1408_0
 0001:00059E4C      _fprintf
 0001:00059E4C      ___org_fprintf
 0001:00059E70      @C1414_0
 0001:00059E70      ___fputn
 0001:00059F4C      @C1432_0
 0001:00059FA8      _fseek
 0001:00059FA8      ___org_fseek
 0001:0005A00C      ___org_ftell
 0001:0005A00C      _ftell
 0001:0005A08C      @C1440_0
 0001:0005A08C      __fullpath
 0001:0005A08C      ___org__fullpath
 0001:0005A160      ___org__getdcwd
 0001:0005A160      __getdcwd
 0001:0005A160      @C1448_0
 0001:0005A2A0      ___IOerror
 0001:0005A2A0      @C1463_0
 0001:0005A2E4      ___DOSerror
 0001:0005A304      ___NTerror
 0001:0005A318      @C1467_0
 0001:0005A318      ___org_isatty
 0001:0005A318      _isatty
 0001:0005A320      _lock
 0001:0005A320      @C1473_0
 0001:0005A320      ___org_lock
 0001:0005A360      _unlock
 0001:0005A360      ___org_unlock
 0001:0005A3A0      @C1477_0
 0001:0005A3A0      ___org_fputc
 0001:0005A3A0      _fputc
 0001:0005A4B0      ___org_lseek
 0001:0005A4B0      @C1481_0
 0001:0005A4B0      _lseek
 0001:0005A4B8      @C1487_0
 0001:0005A4B8      ___mkname
 0001:0005A508      ___tmpnam
 0001:0005A54C      _open
 0001:0005A54C      @C1491_0
 0001:0005A54C      ___org_open
 0001:0005A554      __wopen
 0001:0005A55C      _printf
 0001:0005A55C      ___org_printf
 0001:0005A55C      @C1497_0
 0001:0005A580      _read
 0001:0005A580      @C1507_0
 0001:0005A580      ___org_read
 0001:0005A588      _setmode
 0001:0005A588      @C1539_0
 0001:0005A588      ___org_setmode
 0001:0005A5F4      @C1541_0
 0001:0005A5F4      _setvbuf
 0001:0005A5F4      ___org_setvbuf
 0001:0005A644      @C1551_0
 0001:0005A66C      _sprintf
 0001:0005A66C      ___org_sprintf
 0001:0005A694      ___org_vsprintf
 0001:0005A694      _vsprintf
 0001:0005A6BC      __init_streams
 0001:0005A6BC      @C1563_0
 0001:0005A778      @C1563_1
 0001:0005A778      __exit_streams
 0001:0005A7D4      ___org_tmpnam
 0001:0005A7D4      _tmpnam
 0001:0005A7D4      @C1571_0
 0001:0005A7EC      __unlink
 0001:0005A7EC      @C1579_0
 0001:0005A808      @C1583_0
 0001:0005A808      ___org_vfprintf
 0001:0005A808      _vfprintf
 0001:0005A82C      @C1591_0
 0001:0005A8DC      ___vprinter
 0001:0005B218      @C1647_0
 0001:0005B218      _write
 0001:0005B218      ___org_write
 0001:0005B220      __xfclose
 0001:0005B220      @C1667_0
 0001:0005B250      __xfflush
 0001:0005B250      @C1669_0
 0001:0005B278      __getLocaleNumericInfo
 0001:0005B278      @C1683_0
 0001:0005B2CC      _isalnum
 0001:0005B2CC      @C1690_0
 0001:0005B2E4      _isascii
 0001:0005B2F8      _isalpha
 0001:0005B310      _iscntrl
 0001:0005B324      _isdigit
 0001:0005B338      _isgraph
 0001:0005B350      _islower
 0001:0005B364      _isprint
 0001:0005B37C      _ispunct
 0001:0005B390      _isspace
 0001:0005B3A4      _isupper
 0001:0005B3B8      _isxdigit
 0001:0005B3D0      _iswalnum
 0001:0005B3D0      @C1692_0
 0001:0005B3E8      _iswascii
 0001:0005B3FC      _iswalpha
 0001:0005B414      _iswcntrl
 0001:0005B428      _iswdigit
 0001:0005B43C      _iswgraph
 0001:0005B454      _iswlower
 0001:0005B468      _iswprint
 0001:0005B480      _iswpunct
 0001:0005B494      _iswspace
 0001:0005B4A8      _iswupper
 0001:0005B4BC      _iswxdigit
 0001:0005B4D4      ___isctype
 0001:0005B4D4      @C1694_0
 0001:0005B518      @C1696_0
 0001:0005B518      ___iswctype
 0001:0005B570      __ltolower
 0001:0005B570      @C1734_0
 0001:0005B5C4      @C1736_0
 0001:0005B5C4      __ltowlower
 0001:0005B618      @C1738_0
 0001:0005B618      __ltoupper
 0001:0005B66C      __ltowupper
 0001:0005B66C      @C1740_0
 0001:0005B6C0      ___org_mblen
 0001:0005B6C0      @C1742_0
 0001:0005B6C0      _mblen
 0001:0005B73C      ___org_mbtowc
 0001:0005B73C      _mbtowc
 0001:0005B810      ___org_wctomb
 0001:0005B810      _wctomb
 0001:0005B884      ___org_mbstowcs
 0001:0005B884      _mbstowcs
 0001:0005B9EC      ___org_wcstombs
 0001:0005B9EC      _wcstombs
 0001:0005BB90      @C1792_0
 0001:0005BB90      __llmul
 0001:0005BBB3      __lldiv
 0001:0005BC2B      __lludiv
 0001:0005BC74      __llmod
 0001:0005BCEE      __llumod
 0001:0005BD3C      __llshl
 0001:0005BD58      __llshr
 0001:0005BD74      __llushr
 0001:0005BD90      @C1806_0
 0001:0005BD90      __finite
 0001:0005BDB0      @C1816_0
 0001:0005BDB0      __isnan
 0001:0005BDF8      ___matherr
 0001:0005BDF8      @C1826_0
 0001:0005BEA8      @C1832_0
 0001:0005BEA8      __pow10
 0001:0005C030      ___org_atof
 0001:0005C030      @C1851_0
 0001:0005C030      _atof
 0001:0005C044      _atol
 0001:0005C044      ___org_atol
 0001:0005C044      @C1855_0
 0001:0005C0AC      ___org_atoi
 0001:0005C0AC      _atoi
 0001:0005C0BC      _ceil
 0001:0005C0BC      @C1863_0
 0001:0005C0BC      ___org_ceil
 0001:0005C0D8      @C1867_0
 0001:0005C0D8      __clear87
 0001:0005C0EC      __control87
 0001:0005C0EC      @C1881_0
 0001:0005C11C      @C1883_0
 0001:0005C11C      ___realcvt
 0001:0005C122      ___nextreal
 0001:0005C128      __scantod
 0001:0005C12E      __scanrslt
 0001:0005C134      @C1887_0
 0001:0005C14C      @C1889_0
 0001:0005C164      _exp
 0001:0005C164      @C1897_0
 0001:0005C164      ___org_exp
 0001:0005C1D0      @C1905_0
 0001:0005C1D0      __f87_Exp2
 0001:0005C1D5      __f87_Exp10
 0001:0005C1DD      __f87_Exp
 0001:0005C2A0      @C1907_0
 0001:0005C2A0      __f87_Log2
 0001:0005C2A4      __f87_Log10
 0001:0005C2A8      __f87_Log
 0001:0005C2E8      _fabs
 0001:0005C2E8      @C1911_0
 0001:0005C2F8      @C1921_0
 0001:0005C2F8      _floor
 0001:0005C314      @C1925_0
 0001:0005C314      _fmod
 0001:0005C364      __fpreset
 0001:0005C364      @C1929_0
 0001:0005C37C      @C1935_0
 0001:0005C37C      @_ftol$qv
 0001:0005C37C      __ftol
 0001:0005C3A4      @C1937_0
 0001:0005C3A4      __fuildq
 0001:0005C3D4      __fuistq
 0001:0005C3D4      @C1939_0
 0001:0005C3F8      __fxam
 0001:0005C3F8      @C1941_0
 0001:0005C40C      @C1957_0
 0001:0005C40C      ___int64toa
 0001:0005C4C0      ___ldtrunc
 0001:0005C4C0      @C1967_0
 0001:0005C5D8      _log
 0001:0005C5D8      @C1969_0
 0001:0005C5D8      ___org_log
 0001:0005C648      _log10
 0001:0005C648      @C1971_0
 0001:0005C648      ___org_log10
 0001:0005C6B8      @C1977_0
 0001:0005C6B8      ___longtoa
 0001:0005C72C      ___utoa
 0001:0005C748      ___org_itoa
 0001:0005C748      _itoa
 0001:0005C748      @C1985_0
 0001:0005C778      ___org_ultoa
 0001:0005C778      _ultoa
 0001:0005C798      __ltoa
 0001:0005C7C0      __matherrl
 0001:0005C7C0      ___org__matherrl
 0001:0005C7C0      @C1991_0
 0001:0005C7F0      __initmatherr
 0001:0005C7F0      @C1993_0
 0001:0005C808      _pow
 0001:0005C808      @C2007_0
 0001:0005C808      ___org_pow
 0001:0005C9E4      @C2015_0
 0001:0005C9E4      __qdiv10
 0001:0005CA0C      @C2017_0
 0001:0005CA0C      __qmul10
 0001:0005CA3C      @C2021_0
 0001:0005CD20      __cvt_init
 0001:0005CD38      @C2023_0
 0001:0005D054      __cvt_initw
 0001:0005D06C      @C2028_0
 0001:0005D06C      __round
 0001:0005D098      @C2030_0
 0001:0005D564      __scan_init
 0001:0005D57C      @C2032_0
 0001:0005DA44      __scan_initw
 0001:0005DA5C      @C2042_0
 0001:0005DA5C      _sqrt
 0001:0005DA5C      ___org_sqrt
 0001:0005DA98      @C2048_0
 0001:0005DAC0      __strtold
 0001:0005DAC0      ___org__strtold
 0001:0005DB28      ___org_strtod
 0001:0005DB28      _strtod
 0001:0005DB5C      @C2076_0
 0001:0005DB5C      ___xcvt
 0001:0005DE30      @C2078_0
 0001:0005DE30      ___xcvtw
 0001:0005E124      __setmbcp
 0001:0005E124      @C2090_0
 0001:0005E248      __getmbcp
 0001:0005E250      @C2090_3
 0001:0005E250      __initMBCSTable
 0001:0005E260      @C2092_0
 0001:0005E260      __ismbcalpha
 0001:0005E2A0      @C2094_0
 0001:0005E2A0      __ismbcdigit
 0001:0005E2BC      __ismbcspace
 0001:0005E2BC      @C2112_0
 0001:0005E2D8      __mbschr
 0001:0005E2D8      @C2124_0
 0001:0005E328      __mbsdec
 0001:0005E328      @C2130_0
 0001:0005E380      __mbsicmp
 0001:0005E380      @C2132_0
 0001:0005E41C      @C2150_0
 0001:0005E41C      __mbsnbcpy
 0001:0005E470      @C2152_0
 0001:0005E470      __mbsnbicmp
 0001:0005E530      __mbsrchr
 0001:0005E530      @C2174_0
 0001:0005E588      @C2226_0
 0001:0005E5D0      __assert
 0001:0005E630      @C2242_0
 0001:0005E680      __ErrorMessageHelper
 0001:0005E6E8      @C2246_0
 0001:0005E740      __ErrorMessage
 0001:0005E85C      ___ErrorMessage
 0001:0005E86C      __ErrorExit
 0001:0005E884      @C2254_0
 0001:0005E884      @C2254_3
 0001:0005E910      @C2258_0
 0001:0005EB1C      _qsort
 0001:0005EB1C      ___org_qsort
 0001:0005EB48      ___org_cwait
 0001:0005EB48      _cwait
 0001:0005EB48      @C2269_0
 0001:0005EB50      @C2273_0
 0001:0005EB50      __abort
 0001:0005EB64      _abort
 0001:0005EB74      @C2311_0
 0001:0005EBCC      _exit
 0001:0005EBE4      __exit
 0001:0005EBFC      __cexit
 0001:0005EC0C      __c_exit
 0001:0005EC1C      ___org_getenv
 0001:0005EC1C      @C2313_0
 0001:0005EC1C      _getenv
 0001:0005EC74      @C2319_0
 0001:0005EC74      __init_wild_handlers
 0001:0005EC90      @C2321_0
 0001:0005EC90      __argv_default_expand
 0001:0005ECA4      @C2323_0
 0001:0005ECA4      __wargv_default_expand
 0001:0005ECB8      @C2329_0
 0001:0005ECB8      __init_setargv_handlers
 0001:0005ECE0      @C2335_0
 0001:0005ECE0      __setargv
 0001:0005ECE0      @C2335_3
 0001:0005ED68      __exitargv
 0001:0005ED68      @C2335_4
 0001:0005EE4C      @C2337_0
 0001:0005EE4C      __handle_setargv
 0001:0005EFA4      __handle_exitargv
 0001:0005F034      __handle_wsetargv
 0001:0005F034      @C2339_0
 0001:0005F1C8      __handle_wexitargv
 0001:0005F25C      _spawnvp
 0001:0005F25C      ___org_spawnvp
 0001:0005F25C      @C2367_0
 0001:0005F27C      ___org__searchenv
 0001:0005F27C      __searchenv
 0001:0005F27C      @C2375_0
 0001:0005F2AC      @C2383_0
 0001:0005F2AC      __searchstr
 0001:0005F2AC      ___org__searchstr
 0001:0005F3A4      @C2396_0
 0001:0005F3A4      @C2396_2
 0001:0005F3DC      @C2396_3
 0001:0005F3EC      __dummy_add_pid
 0001:0005F3EC      @C2402_0
 0001:0005F5FC      __LoadProg
 0001:0005FA28      @C2410_4
 0001:0005FA28      @C2410_0
 0001:0005FA5C      __expandblock
 0001:0005FBA8      @C2410_3
 0001:0005FBC8      @C2414_0
 0001:0005FDF0      _signal
 0001:0005FE50      _raise
 0001:0005FE50      ___org_raise
 0001:0005FEC0      @C2422_0
 0001:0005FEC0      _add_pid
 0001:0005FF04      __cwait
 0001:00060060      @C2422_3
 0001:0006006C      @C2433_0
 0001:0006006C      __terminate
 0001:0006007C      __create_shmem
 0001:00060084      __init_exit_proc
 0001:00060158      __cleanup
 0001:000601C4      @C2435_0
 0001:000601C4      __startup
 0001:00060368      @C2449_0
 0001:00060368      ___CRTL_TLS_Alloc
 0001:00060370      ___CRTL_TLS_Free
 0001:00060380      ___CRTL_TLS_GetValue
 0001:00060390      ___CRTL_TLS_SetValue
 0001:000603A4      ___CRTL_TLS_InitThread
 0001:000603AC      ___CRTL_TLS_ExitThread
 0001:000603B4      ___CRTL_TLS_GetInfo
 0001:000603B8      @C2457_0
 0001:00060524      _gmtime
 0001:00060524      ___org_gmtime
 0001:0006053C      ___org_localtime
 0001:0006053C      _localtime
 0001:00060564      @C2467_0
 0001:00060564      __isDST
 0001:00060678      __totalsec
 0001:00060808      @C2469_0
 0001:00060808      @C2469_2
 0001:00060810      __tzset
 0001:00060810      @C2471_0
 0001:000609D8      @C2473_0
 0001:000609D8      _tzset
 0001:000609E0      @C2477_0
 0001:000609E0      _clock
 0001:000609EC      @C2477_2
 0001:000609F8      @C2483_0
 0001:000609F8      _ftime
 0001:000609F8      ___org_ftime
 0001:00060A98      @C2527_3
 0001:00060A98      @C2527_0
 0001:00060AC3      ___JumpToCatch__
 0001:00060D2D      ___raiseDebuggerException
 0001:000610E8      @_ThrowExceptionLDTC$qpvt1t1t1uiuiuipuct1
 0001:0006111D      @_ReThrowException$quipuc
 0001:00061188      __Global_unwind
 0001:000612C4      @_CatchCleanup$qv
 0001:000617F4      __Local_unwind
 0001:00061807      __Return_unwind
 0001:00061868      ____ExceptionHandler
 0001:000625E6      __CurrExcContext
 0002:00000138      @D1_1
 0002:0000017C      ___isGUI
 0002:000001B4      ___isVCLPackage
 0002:000001B5      ___isDLL
 0002:000001C2      ___useDynamicTLS
 0002:000001C3      __TLS_index
 0002:000001C7      __TLS_index4
 0002:000001CB      __hInstance
 0002:000001D0      ___CPPdebugHook
 0002:000001D0      ___CPPdebugHook_segment
 0002:000001D4      __PackageInfoTable
 0002:000001DC      @D2_1
 0002:000003E0      @D3_1
 0002:00004D80      _hb_bTracePrgCalls
 0002:00004D80      @D22_1
 0002:00004D84      _hb_symEval
 0002:00004D9C      _hb_vm_iExtraParamsIndex
 0002:00004DA0      _hb_vm_iExtraElementsIndex
 0002:00004DA4      _hb_vm_iExtraElements
 0002:00004DA8      _hb_vm_sNull
 0002:00004DAC      _hb_vm_acAscii
 0002:000051AC      _hb_vm_bWithObject
 0002:000051B0      _hb_vm_wEnumCollectionCounter
 0002:00005878      @D24_1
 0002:00005AFC      @D28_0
 0002:00005AFC      __streams
 0002:00009C9C      @D32_0
 0002:00009C9C      __nfile
 0002:00009CA0      __openfd
 0002:0000A790      @D46_1
 0002:0000B108      @D104_1
 0002:0000B3C4      @D106_1
 0002:0000B478      _b_MouseEnable
 0002:0000B478      @D113_1
 0002:0000B4EC      @D123_1
 0002:0000B4FC      @D125_1
 0002:0000B6C8      @D127_1
 0002:0000B7D8      @D129_1
 0002:0000B7F4      @D133_1
 0002:0000B7F8      @D136_1
 0002:0000B810      @D138_1
 0002:0000B8A8      @D147_1
 0002:0000B924      @D149_1
 0002:0000B948      @D151_1
 0002:0000B948      _hb_comp_bShortCuts
 0002:0000B96C      @D159_1
 0002:0000B9C8      @D165_1
 0002:0000BA90      @D173_1
 0002:0000BBF0      @D181_1
 0002:0000BBF4      @D189_1
 0002:0000BC2C      _s_cdpage
 0002:0000BC38      @D191_1
 0002:0000BC40      @D195_1
 0002:0000BC58      @D201_1
 0002:0000BC80      @D203_1
 0002:0000BCB8      @D205_1
 0002:0000BCC4      @D225_1
 0002:0000BCD8      @D239_1
 0002:0000BCFC      @D257_1
 0002:0000BD1C      @D277_1
 0002:0000BD28      _hb_vm_bCollectGarbage
 0002:0000BD2C      @D279_1
 0002:0000BD34      @D285_1
 0002:0000BD94      @D287_1
 0002:0000BD9C      @D289_1
 0002:0000BDA0      @D293_1
 0002:0000BEF4      @D297_1
 0002:0000BEF8      @D301_1
 0002:0000BF00      @D313_1
 0002:0000BF10      @D331_1
 0002:0000BF14      @D335_1
 0002:0000BF18      @D337_1
 0002:0000BFF8      @D345_1
 0002:0000C160      _pcre_malloc
 0002:0000C164      _pcre_free
 0002:0000CD78      @D347_1
 0002:0000CD84      @D351_1
 0002:0000CD90      @D363_1
 0002:0000CE18      @D379_1
 0002:0000CE20      @D383_1
 0002:0000CE48      @D385_1
 0002:0000CE54      @D395_1
 0002:0000CE60      @D397_1
 0002:0000CE6C      @D401_1
 0002:0000CE74      @D407_1
 0002:0000CEC8      @D409_1
 0002:0000CEF4      @D411_1
 0002:0000CF38      @D413_1
 0002:0000CF48      @D415_1
 0002:0000CF50      @D417_1
 0002:0000CF54      @D427_1
 0002:0000CF5C      @D429_1
 0002:0000CF60      @D435_1
 0002:0000DCE8      @D449_1
 0002:0000E930      @D465_1
 0002:00010058      @D489_1
 0002:00010F24      @D517_1
 0002:000120D8      @D521_1
 0002:00012630      @D535_1
 0002:00012DE8      @D539_1
 0002:00013114      @D561_1
 0002:000134CC      @D563_1
 0002:0001351C      @D565_1
 0002:00013704      @D569_1
 0002:000138D0      @D571_1
 0002:00013A98      @D573_1
 0002:00013B20      @D575_1
 0002:00013ECC      @D589_1
 0002:00013F60      @D591_1
 0002:00014294      @D593_1
 0002:0001433C      @D595_1
 0002:000143C4      @D597_1
 0002:00016458      @D599_1
 0002:00016490      @D601_1
 0002:00016490      _hb_comp_ExprTable
 0002:000165C0      @D605_1
 0002:000165E8      _yytext
 0002:000166A0      _aPairs
 0002:0001702C      @D617_1
 0002:00017310      @D619_1
 0002:000173B4      @D629_1
 0002:00017594      @D631_1
 0002:00017638      @D635_1
 0002:00017640      @D643_1
 0002:00017640      _hb_tr_file_
 0002:00017644      _hb_tr_line_
 0002:00017648      _hb_tr_level_
 0002:000176F4      @D645_1
 0002:00017AF8      @D647_1
 0002:00017C54      @D651_1
 0002:00017EA8      @D653_1
 0002:00017EF8      @D877_1
 0002:00017EFC      @D879_1
 0002:00017F94      @D889_1
 0002:00017F98      __heap_redirector
 0002:00017FB4      __virt_heap_size
 0002:00017FB4      @D895_1
 0002:00017FB8      __virt_chunk_size
 0002:00017FBC      __virt_chunk_size2
 0002:00017FC0      __nv_heap_size
 0002:00017FC4      __smalloc_threshold
 0002:00017FC8      __virt_chunk_free
 0002:00017FCC      __virt_chunk_free2
 0002:00017FD0      __firstHeap
 0002:00017FD4      __lastHeap
 0002:00017FD8      __linktable
 0002:00017FDC      __freeStart
 0002:00017FE8      __rover
 0002:00017FF0      ___allocated
 0002:00017FF4      ___xxPersonality
 0002:00017FF4      @D1190_0
 0002:00017FF8      @D1192_1
 0002:00018318      @D1194_1
 0002:00018318      ___terminatePTR
 0002:0001831C      ___unexpectdPTR
 0002:00018320      @_$CHNC$@std@terminate$qv
 0002:00018340      @_$ECTOC$@std@terminate$qv
 0002:00018354      @D1196_1
 0002:00018354      ___CPPexceptionList
 0002:00018358      ___exceptFlags
 0002:0001835C      ___throwFileName
 0002:00018360      ___throwLineNumber
 0002:00018364      ___throwExceptionName
 0002:00018368      ___exceptStaticBuffP
 0002:0001836C      ___exceptMemAllocVars
 0002:00018370      ___ExceptStaticXbuff
 0002:000183F0      __ExceptVarsSize
 0002:00018404      @_$CHNC$@__call_terminate$qv
 0002:00018424      @_$ECTOC$@__call_terminate$qv
 0002:00018438      __stkchk
 0002:00018438      @D1202_1
 0002:0001844C      @D1218_1
 0002:00018458      __cfinfo_get
 0002:00018458      @D1238_1
 0002:0001845C      @D1292_1
 0002:0001845C      __notUmask
 0002:00018460      __fileinfo
 0002:00018460      @D1318_0
 0002:00018464      __fmode
 0002:00018464      @D1399_0
 0002:00018468      @D1401_1
 0002:00018468      __fmodeptr
 0002:0001846C      __dosErrorToSV
 0002:0001846C      @D1463_1
 0002:00018598      @D1487_1
 0002:000185A4      __sys_errlist
 0002:000185A4      @D1495_1
 0002:00018668      __sys_nerr
 0002:00018A20      @D1591_1
 0002:00018A98      __chartype
 0002:00018A98      @D1671_0
 0002:00018C9C      @D1677_0
 0002:00018C9C      __lower
 0002:00018D9C      __upper
 0002:00018D9C      @D1681_0
 0002:00018E9C      _CMonetary
 0002:00018E9C      @D1700_0
 0002:00018ED0      _CNumeric
 0002:00018EE8      _CTimeDate
 0002:00018FAC      _CLOCALE
 0002:00018FD8      ___locale
 0002:000190FC      @D1826_1
 0002:0001910C      @D1832_1
 0002:000191CC      @D1887_1
 0002:000191CC      __realcvtptr
 0002:000191D0      __nextrealptr
 0002:000191D4      __scantodptr
 0002:000191D8      __scanrsltptr
 0002:00019234      @D1889_1
 0002:00019234      __realcvtwptr
 0002:00019238      __nextrealwptr
 0002:0001923C      __scanwtodptr
 0002:00019240      __scanwrsltptr
 0002:0001929C      __default87
 0002:0001929C      @D1891_0
 0002:000192A0      @D1897_1
 0002:000192AC      @D1905_1
 0002:000192C0      @D1907_1
 0002:000192D8      __huge_flt
 0002:000192D8      @D1945_0
 0002:000192DC      __huge_dble
 0002:000192E4      __huge_ldble
 0002:000192EE      __max_flt
 0002:000192F2      __max_dble
 0002:000192FA      __max_ldble
 0002:00019304      __indefinite
 0002:00019308      __tiny_ldble
 0002:00019314      ___ieee_64_p_inf
 0002:0001931C      ___ieee_64_n_inf
 0002:00019324      ___ieee_64_p_nanq
 0002:0001932C      ___ieee_64_n_nanq
 0002:00019334      ___ieee_64_p_nans
 0002:0001933C      ___ieee_64_n_nans
 0002:00019344      ___ieee_64_p_zero
 0002:0001934C      ___ieee_64_n_zero
 0002:00019354      @D1955_0
 0002:00019354      __turboFloat
 0002:00019358      __floatconvert
 0002:0001935C      @D1969_1
 0002:00019368      @D1971_1
 0002:00019378      @D1993_1
 0002:00019378      __pmatherr
 0002:0001937C      __pmatherrl
 0002:00019380      __mathwhy
 0002:00019380      @D1997_0
 0002:000193C4      @D2007_1
 0002:000193E0      @D2021_1
 0002:000193F4      @D2023_1
 0002:0001941C      @D2030_1
 0002:00019444      @D2032_1
 0002:0001946C      @D2042_1
 0002:0001947C      __kalpha
 0002:0001947C      @D2090_1
 0002:0001947E      __kpunct
 0002:000194C4      @D2226_1
 0002:000194E8      @D2242_1
 0002:0001950C      _errno
 0002:0001950C      @D2244_1
 0002:00019510      __messagefunc
 0002:00019510      @D2246_1
 0002:00019514      __messagefile
 0002:00019520      @D2254_1
 0002:00019548      @D2273_1
 0002:00019568      @D2275_0
 0002:00019568      ___pCallAtExitProcs
 0002:0001956C      @D2311_1
 0002:0001956C      __exitbuf
 0002:00019570      __exitfopen
 0002:00019574      __exitopen
 0002:00019578      @D2331_0
 0002:00019578      __setargv_ptr
 0002:0001957C      __exitargv_ptr
 0002:00019580      __wsetargv_ptr
 0002:00019580      @D2333_0
 0002:00019584      __wexitargv_ptr
 0002:00019588      @D2335_1
 0002:00019588      __setargv__
 0002:000195DC      __cmdline_escapes
 0002:000195DC      @D2337_1
 0002:00019604      @D2339_1
 0002:00019628      @D2375_1
 0002:0001962C      @D2383_1
 0002:00019630      __argv_expand_ptr
 0002:00019630      @D2392_0
 0002:00019634      @D2394_0
 0002:00019634      __wargv_expand_ptr
 0002:00019638      __argv0
 0002:00019638      @D2396_1
 0002:00019658      __add_pid_ptr
 0002:00019658      @D2402_1
 0002:00019688      @D2410_1
 0002:00019688      __setenvp__
 0002:000196DC      @D2414_1
 0002:0001973C      @D2422_1
 0002:00019740      @D2432_0
 0002:00019740      __isWindows
 0002:00019744      @D2433_1
 0002:00019748      @D2463_0
 0002:00019748      __SWeekday
 0002:00019764      __LWeekday
 0002:00019780      __SMonth
 0002:000197B0      __LMonth
 0002:000197E0      __AmPm
 0002:000197E8      __Days
 0002:000197F4      __YDays
 0002:0001990C      @D2469_1
 0002:0001990C      __timezone
 0002:00019910      __daylight
 0002:00019914      @D2471_1
 0002:00019914      __tzname
 0002:00019924      @D2477_1
 0002:00019928      @D2527_1
 0002:00019928      ___debuggerDisableTerminateCallback
 0003:00000000      @B22_2
 0003:0000002C      _hb_vm_aiExtraParams
 0003:0000006C      _hb_vm_apExtraParamsSymbol
 0003:000000AC      _hb_vm_aiExtraElements
 0003:000000EC      _hb_vm_iExtraIndex
 0003:000000F0      _hb_vm_aWithObject
 0003:00000270      _hb_vm_wWithObjectCounter
 0003:00000274      _hb_vm_aEnumCollection
 0003:000003F4      _hb_vm_apEnumVar
 0003:00000434      _hb_vm_awEnumIndex
 0003:00000498      @B26_1
 0003:0000069C      @B32_1
 0003:0000069C      __pidtab
 0003:0000118C      __handles
 0003:00001C7C      @B125_2
 0003:00001C84      @B127_2
 0003:00001C84      _hb_stack
 0003:00001CCC      @B133_2
 0003:00001CE4      @B138_2
 0003:00001E70      @B189_2
 0003:00001F70      @B195_2
 0003:00001F88      @B225_2
 0003:00002088      @B239_2
 0003:000020A0      @B279_2
 0003:000020B8      @B285_2
 0003:000021B8      _hb_set
 0003:000021B8      @B363_2
 0003:000023F8      _s_PrintFileName
 0003:000024F8      _s_PrinterName
 0003:000025F8      _s_HaveSetPrinterName
 0003:000025FC      @B369_1
 0003:00002600      @B429_2
 0003:00002604      @B565_2
 0003:00002780      @B569_2
 0003:000028FC      @B571_2
 0003:00002A78      @B597_2
 0003:00002AB8      @B605_2
 0003:00007374      _yyleng
 0003:00007380      _yyin
 0003:0000B98C      @B617_2
 0003:0000BB08      @B629_2
 0003:0000BC84      @B653_2
 0003:0000C6E0      _s_mouseLast
 0003:0000C6E4      @B655_1
 0003:0000C6E4      _hb_mouse_iCol
 0003:0000C6E8      _hb_mouse_iRow
 0003:0000C6EC      __bormm_pfn_FreeMem
 0003:0000C6EC      @B879_2
 0003:0000C6F0      __bormm_pfn_GetMem
 0003:0000C6F4      __bormm_pfn_ReallocMem
 0003:0000C6F8      __bormm_pfn_HeapAddRef
 0003:0000C6FC      __bormm_pfn_HeapRelease
 0003:0000C704      @B1142_1
 0003:0000C708      @B1192_2
 0003:0000CB18      __DestructorCountPtr
 0003:0000CB18      @B1196_2
 0003:0000CB20      __HandlerPtr
 0003:0000CB20      @B1202_2
 0003:0000CB24      __UserHandlerPtr
 0003:0000CB28      @B1463_2
 0003:0000CB28      __doserrno
 0003:0000CB2C      @B1487_2
 0003:0000CB2C      __tmpnum
 0003:0000CB3C      __mbctype
 0003:0000CB3C      @B2090_2
 0003:0000CC40      __mbcsCodePage
 0003:0000CC44      @B2226_2
 0003:0000CD44      @B2242_2
 0003:0000CD60      __ostype
 0003:0000CD60      @B2254_2
 0003:0000CD64      @B2258_1
 0003:0000CD6C      @B2335_2
 0003:0000CD6C      __argv
 0003:0000CD78      @B2337_2
 0003:0000CD7C      @B2339_2
 0003:0000CD80      @B2410_2
 0003:0000CD80      __environ
 0003:0000CD88      __envsize
 0003:0000CD8C      __env_lock
 0003:0000CD90      @B2422_2
 0003:0000CF90      __C0argc
 0003:0000CF90      @B2432_1
 0003:0000CF94      __C0argv
 0003:0000CF98      __C0environ
 0003:0000CF9C      __oscmd
 0003:0000CFA0      __osenv
 0003:0000CFA4      __argc
 0003:0000CFA8      __dll_table
 0003:0000CFB0      __ExcRegPtr
 0003:0000CFB4      __wosenv
 0003:0000CFB8      __woscmd
 0003:0000CFBC      __wC0argv
 0003:0000CFC0      __wC0environ
 0003:0000CFC4      __exe_table
 0003:0000CFCC      __stkbase
 0003:0000CFD0      @B2457_1
 0003:0000CFF4      @B2471_2
 0003:0000CFFC      @B2527_2
 0003:0000D000      ___pCPPdebugHook
 0004:00000000      @T1196_3
 0004:00000000      ___xxInfo
